******************************************************************************
            TI ARM Clang Linker Unix v1.3.0                    
******************************************************************************
>> Linked Sat Nov 13 03:26:32 2021

OUTPUT FILE NAME:   <sbl_uart_uniflash.release.out>
ENTRY POINT SYMBOL: "_vectors_sbl"  address: 70000000


MEMORY CONFIGURATION

         name            origin    length      used     unused   attr    fill
----------------------  --------  ---------  --------  --------  ----  --------
  R5F_VECS              00000000   00000040  00000000  00000040  RWIX
  R5F_TCMA              00000040   00007fc0  00000000  00007fc0  RWIX
  R5F_TCMB0             41010000   00008000  00000000  00008000  RWIX
  MSRAM_VECS            70000000   00000100  00000040  000000c0  RWIX
  MSRAM_0               70000100   00067f00  00048400  0001fb00  RWIX
  MSRAM_1               70068000   00018000  00017c00  00000400  RWIX
  DDR                   80000000   00800000  00800000  00000000  RWIX


SEGMENT ALLOCATION MAP

run origin  load origin   length   init length attrs members
----------  ----------- ---------- ----------- ----- -------
70000000    70000000    00000040   00000040    r-x
  70000000    70000000    00000040   00000040    r-x .vectors
70000100    70000100    00017650   00017650    r-x
  70000100    70000100    000164c0   000164c0    r-x .text
  700165c0    700165c0    000008d0   000008d0    r-x .text.hwi
  70016e90    70016e90    000004a0   000004a0    r-x .text.cache
  70017330    70017330    000002d0   000002d0    r-x .text.mpu
  70017600    70017600    00000150   00000150    r-x .text.boot
70017750    70017750    00002660   00002660    rw-
  70017750    70017750    00002660   00002660    rw- .data
70019e00    70019e00    0002e700   0002e700    r--
  70019e00    70019e00    0002e700   0002e700    r-- .rodata
70068000    70068000    00016800   00000000    rw-
  70068000    70068000    0000a800   00000000    rw- .bss
  70072800    70072800    00008000   00000000    rw- .sysmem
  7007a800    7007a800    00004000   00000000    rw- .stack
7007e800    7007e800    00001400   00000000    r--
  7007e800    7007e800    00001000   00000000    r-- .irqstack
  7007f800    7007f800    00000100   00000000    r-- .fiqstack
  7007f900    7007f900    00000100   00000000    r-- .svcstack
  7007fa00    7007fa00    00000100   00000000    r-- .abortstack
  7007fb00    7007fb00    00000100   00000000    r-- .undefinedstack


SECTION ALLOCATION MAP

 output                                  attributes/
section   page    origin      length       input sections
--------  ----  ----------  ----------   ----------------
.vectors   0    70000000    00000040     
                  70000000    00000040     nortos.am64x.r5f.ti-arm-clang.release.lib : HwiP_armv7r_vectors_nortos_sbl_asm.obj (.vectors)

.text      0    70000100    000164c0     
                  70000100    00001538     drivers.am64x.r5f.ti-arm-clang.release.lib : mmcsd_v0.obj (.text.MMCSD_open)
                  70001638    00000c28     libc.a : _printfi.c.obj (.text:__TI_printfi_nofloat)
                  70002260    00000c1c     drivers.am64x.r5f.ti-arm-clang.release.lib : mmcsd_v0.obj (.text.MMCSD_transfer)
                  70002e7c    00000004     libclang_rt.builtins.a : aeabi_memcpy.S.obj (.text)
                  70002e80    00000a00     drivers.am64x.r5f.ti-arm-clang.release.lib : sciclient_rm_irq.obj (.text.Sciclient_rmIrqFindRoute)
                  70003880    000008e8                                                : ospi_phy.obj (.text.OSPI_phyFindOTP1)
                  70004168    00000008     libc.a : exit.c.obj (.text:abort)
                  70004170    00000860     nortos.am64x.r5f.ti-arm-clang.release.lib : printf.obj (.text._vsnprintf)
                  700049d0    00000828     drivers.am64x.r5f.ti-arm-clang.release.lib : udma_ch.obj (.text.Udma_chDisable)
                  700051f8    00000008     --HOLE-- [fill = 0]
                  70005200    00000720                                                : csl_bcdma.obj (.text.CSL_bcdmaChanOp)
                  70005920    00000628                                                : udma_event.obj (.text.Udma_eventRegister)
                  70005f48    00000008     --HOLE-- [fill = 0]
                  70005f50    00000558                                                : udma_ch.obj (.text.Udma_chOpen)
                  700064a8    00000008     --HOLE-- [fill = 0]
                  700064b0    0000053c     board.am64x.r5f.ti-arm-clang.release.lib : flash_nor_xspi.obj (.text.Flash_norXspiOpen)
                  700069ec    00000004     --HOLE-- [fill = 0]
                  700069f0    000004f8     drivers.am64x.r5f.ti-arm-clang.release.lib : uart_v0.obj (.text.UART_open)
                  70006ee8    00000008     --HOLE-- [fill = 0]
                  70006ef0    000004c4                                                : sciclient.obj (.text.Sciclient_service)
                  700073b4    0000000c     libc.a : aeabi_portable.c.obj (.text.__aeabi_errno_addr)
                  700073c0    00000490     drivers.am64x.r5f.ti-arm-clang.release.lib : ospi_phy.obj (.text.OSPI_phyFindOTP2)
                  70007850    00000450     nortos.am64x.r5f.ti-arm-clang.release.lib : printf.obj (.text._ftoa)
                  70007ca0    00000400     drivers.am64x.r5f.ti-arm-clang.release.lib : udma_rm.obj (.text.Udma_rmInit)
                  700080a0    000003d8                                                : uart_v0.obj (.text.UART_read)
                  70008478    00000008     --HOLE-- [fill = 0]
                  70008480    00000390                                                : ospi_v0.obj (.text.OSPI_open)
                  70008810    00000388                                                : bootloader_uniflash.obj (.text.Bootloader_uniflashProcessFlashCommands)
                  70008b98    00000008     --HOLE-- [fill = 0]
                  70008ba0    00000370     nortos.am64x.r5f.ti-arm-clang.release.lib : printf.obj (.text._etoa)
                  70008f10    0000036c     drivers.am64x.r5f.ti-arm-clang.release.lib : uart_v0.obj (.text.UART_masterIsr)
                  7000927c    00000004     --HOLE-- [fill = 0]
                  70009280    00000350                                                : udma_rmcfg_common.obj (.text.UdmaRmInitPrms_init)
                  700095d0    00000334                                                : sciclient_rm_irq.obj (.text.Sciclient_rmProgramInterruptRoute)
                  70009904    0000000c     --HOLE-- [fill = 0]
                  70009910    00000320                                                : xmodem.obj (.text.xmodemReceive)
                  70009c30    00000304                                                : udma_soc.obj (.text.Udma_initDrvHandle)
                  70009f34    0000000c     --HOLE-- [fill = 0]
                  70009f40    000002f4                                                : xmodem.obj (.text.xmodemTransmit)
                  7000a234    0000000c     --HOLE-- [fill = 0]
                  7000a240    000002b4                                                : uart_v0.obj (.text.UART_fifoConfig)
                  7000a4f4    0000000c     --HOLE-- [fill = 0]
                  7000a500    000002a4                                                : uart_v0.obj (.text.UART_write)
                  7000a7a4    0000000c     --HOLE-- [fill = 0]
                  7000a7b0    00000274                                                : ddr.obj (.text.DDR_init)
                  7000aa24    0000000c     --HOLE-- [fill = 0]
                  7000aa30    00000260     nortos.am64x.r5f.ti-arm-clang.release.lib : TimerP.obj (.text.TimerP_setup)
                  7000ac90    0000025c     drivers.am64x.r5f.ti-arm-clang.release.lib : udma_ring_common.obj (.text.Udma_ringAlloc)
                  7000aeec    00000004     --HOLE-- [fill = 0]
                  7000aef0    00000214     nortos.am64x.r5f.ti-arm-clang.release.lib : printf.obj (.text._ntoa_format)
                  7000b104    0000000c     --HOLE-- [fill = 0]
                  7000b110    0000020c     drivers.am64x.r5f.ti-arm-clang.release.lib : sciclient_rm_irq.obj (.text.Sciclient_rmIrqProgramRoute)
                  7000b31c    00000004     --HOLE-- [fill = 0]
                  7000b320    000001fc                                                : soc.obj (.text.SOC_moduleSetClockFrequency)
                  7000b51c    00000004     --HOLE-- [fill = 0]
                  7000b520    000001d4                                                : ospi_dma_udma.obj (.text.OspiDma_udmaOpen)
                  7000b6f4    000001d0     libclang_rt.builtins.a : udivsi3.S.obj (.text)
                  7000b8c4    0000000c     --HOLE-- [fill = 0]
                  7000b8d0    000001ac     drivers.am64x.r5f.ti-arm-clang.release.lib : udma_ch.obj (.text.Udma_chConfigRx)
                  7000ba7c    00000004     --HOLE-- [fill = 0]
                  7000ba80    000001ac                                                : udma_ch.obj (.text.Udma_chFreeResource)
                  7000bc2c    00000004     --HOLE-- [fill = 0]
                  7000bc30    000001a4                                                : uart_v0.obj (.text.UART_close)
                  7000bdd4    0000000c     --HOLE-- [fill = 0]
                  7000bde0    000001a0                                                : sciclient.obj (.text.Sciclient_loadFirmware)
                  7000bf80    00000188                                                : ospi_v0.obj (.text.OSPI_writeCmd)
                  7000c108    00000008     --HOLE-- [fill = 0]
                  7000c110    00000184                                                : ospi_v0.obj (.text.OSPI_readCmd)
                  7000c294    0000000c     --HOLE-- [fill = 0]
                  7000c2a0    00000180                                                : lpddr4.obj (.text.LPDDR4_CheckCtlInterrupt)
                  7000c420    00000180                                                : mmcsd_v0.obj (.text.MMCSD_write)
                  7000c5a0    0000017c     board.am64x.r5f.ti-arm-clang.release.lib : flash_nor_xspi.obj (.text.Flash_norXspiWrite)
                  7000c71c    00000004     --HOLE-- [fill = 0]
                  7000c720    00000174     drivers.am64x.r5f.ti-arm-clang.release.lib : bootloader_mmcsd_raw.obj (.text.Bootloader_MmcsdRaw_writeToOffset)
                  7000c894    0000000c     --HOLE-- [fill = 0]
                  7000c8a0    00000174                                                : mmcsd_v0.obj (.text.MMCSD_read)
                  7000ca14    0000000c     --HOLE-- [fill = 0]
                  7000ca20    0000016c                                                : ospi_dma_udma.obj (.text.OspiDma_udmaUpdateSubmitTR)
                  7000cb8c    00000004     --HOLE-- [fill = 0]
                  7000cb90    0000016c                                                : udma_rm.obj (.text.Udma_rmSetSharedResRmInitPrms)
                  7000ccfc    00000004     --HOLE-- [fill = 0]
                  7000cd00    00000168     nortos.am64x.r5f.ti-arm-clang.release.lib : ClockP_nortos_r5.obj (.text.ClockP_init)
                  7000ce68    00000008     --HOLE-- [fill = 0]
                  7000ce70    00000168     drivers.am64x.r5f.ti-arm-clang.release.lib : ospi_v0.obj (.text.OSPI_writeIndirect)
                  7000cfd8    00000008     --HOLE-- [fill = 0]
                  7000cfe0    00000168                                                : udma_ch.obj (.text.Udma_chEnable)
                  7000d148    00000008     --HOLE-- [fill = 0]
                  7000d150    00000160                                                : udma_flow.obj (.text.Udma_flowConfig)
                  7000d2b0    00000158                                                : csl_lcdma_ringacc.obj (.text.CSL_lcdma_ringaccPop64MultiAccess)
                  7000d408    00000008     --HOLE-- [fill = 0]
                  7000d410    0000014c                                                : bootloader_uniflash.obj (.text.Bootloader_uniflashFlashOrVerifyXipFile)
                  7000d55c    00000004     --HOLE-- [fill = 0]
                  7000d560    00000144                                                : bootloader_mmcsd_raw.obj (.text.Bootloader_MmcsdRaw_readFromOffset)
                  7000d6a4    0000000c     --HOLE-- [fill = 0]
                  7000d6b0    00000130                                                : udma_ch.obj (.text.Udma_chConfigTx)
                  7000d7e0    00000128                                                : csl_lcdma_ringacc.obj (.text.CSL_lcdma_ringaccPush64MultiAccess)
                  7000d908    00000008     --HOLE-- [fill = 0]
                  7000d910    00000128                                                : ospi_v0.obj (.text.OSPI_readDirect)
                  7000da38    00000008     --HOLE-- [fill = 0]
                  7000da40    00000124                                                : uart_v0.obj (.text.UART_divisorLatchWrite)
                  7000db64    0000000c     --HOLE-- [fill = 0]
                  7000db70    0000011c                                                : sciclient_pm.obj (.text.Sciclient_pmQueryModuleClkFreq)
                  7000dc8c    00000004     --HOLE-- [fill = 0]
                  7000dc90    00000118     board.am64x.r5f.ti-arm-clang.release.lib : flash_nor_xspi.obj (.text.Flash_norXspiErase)
                  7000dda8    00000008     --HOLE-- [fill = 0]
                  7000ddb0    00000118     drivers.am64x.r5f.ti-arm-clang.release.lib : sciclient.obj (.text.Sciclient_getVersionCheck)
                  7000dec8    00000118     libclang_rt.builtins.a : udivmoddi4.S.obj (.text)
                  7000dfe0    00000114     drivers.am64x.r5f.ti-arm-clang.release.lib : uart_v0.obj (.text.UART_procLineStatusErr)
                  7000e0f4    0000000c     --HOLE-- [fill = 0]
                  7000e100    00000110                                                : bootloader_sysfw_load.obj (.text.Bootloader_socLoadSysFw)
                  7000e210    00000110                                                : mmcsd_v0.obj (.text.MMCSD_halSetBusFreq)
                  7000e320    00000110                                                : sciclient_rm_irq.obj (.text.Sciclient_rmTranslateIntOutput)
                  7000e430    0000010c                                                : bootloader_uniflash.obj (.text.Bootloader_uniflashFlashVerifyFile)
                  7000e53c    00000004     --HOLE-- [fill = 0]
                  7000e540    00000108                                                : bootloader_uniflash.obj (.text.Bootloader_uniflashFlashVerifyFileMMCSDRaw)
                  7000e648    00000008     --HOLE-- [fill = 0]
                  7000e650    00000108                                                : mmcsd_v0.obj (.text.MMCSD_enableBootPartition)
                  7000e758    00000008     --HOLE-- [fill = 0]
                  7000e760    00000108                                                : sciclient_rm_irq.obj (.text.Sciclient_rmIrInpIsFree)
                  7000e868    00000008     --HOLE-- [fill = 0]
                  7000e870    00000100     board.am64x.r5f.ti-arm-clang.release.lib : flash_nor_xspi.obj (.text.Flash_norXspiWaitReady)
                  7000e970    00000100     drivers.am64x.r5f.ti-arm-clang.release.lib : mmcsd_v0.obj (.text.MMCSD_phyConfigure)
                  7000ea70    00000100     nortos.am64x.r5f.ti-arm-clang.release.lib : SemaphoreP_nortos.obj (.text.SemaphoreP_pend)
                  7000eb70    000000f8     drivers.am64x.r5f.ti-arm-clang.release.lib : pinmux.obj (.text.Pinmux_config)
                  7000ec68    00000008     --HOLE-- [fill = 0]
                  7000ec70    000000f8                                                : sciclient_pm.obj (.text.Sciclient_pmSetModuleClkFreq)
                  7000ed68    00000008     --HOLE-- [fill = 0]
                  7000ed70    000000f4                                                : uart_v0.obj (.text.UART_flushTxFifo)
                  7000ee64    0000000c     --HOLE-- [fill = 0]
                  7000ee70    000000f0                                                : csl_lcdma_ringacc.obj (.text.CSL_lcdma_ringaccDequeue)
                  7000ef60    000000f0                                                : udma.obj (.text.Udma_init)
                  7000f050    000000f0                                                : udma_rm.obj (.text.Udma_rmGetSciclientDefaultBoardCfgRmRange)
                  7000f140    000000ec                                                : udma_rm.obj (.text.Udma_rmAllocMappedRxCh)
                  7000f22c    00000004     --HOLE-- [fill = 0]
                  7000f230    000000ec                                                : udma_rm.obj (.text.Udma_rmAllocMappedTxCh)
                  7000f31c    00000004     --HOLE-- [fill = 0]
                  7000f320    000000ec     nortos.am64x.r5f.ti-arm-clang.release.lib : printf.obj (.text._out_rev)
                  7000f40c    00000004     --HOLE-- [fill = 0]
                  7000f410    000000e8     board.am64x.r5f.ti-arm-clang.release.lib : flash_nor_xspi.obj (.text.Flash_norXspiReadId)
                  7000f4f8    00000008     --HOLE-- [fill = 0]
                  7000f500    000000e8     drivers.am64x.r5f.ti-arm-clang.release.lib : sciclient.obj (.text.Sciclient_init)
                  7000f5e8    00000008     --HOLE-- [fill = 0]
                  7000f5f0    000000e4                                                : bootloader_uniflash.obj (.text.Bootloader_uniflashFlashFile)
                  7000f6d4    0000000c     --HOLE-- [fill = 0]
                  7000f6e0    000000e4                                                : udma_event.obj (.text.Udma_eventFreeResource)
                  7000f7c4    0000000c     --HOLE-- [fill = 0]
                  7000f7d0    000000e4     nortos.am64x.r5f.ti-arm-clang.release.lib : printf.obj (.text._ntoa_long_long)
                  7000f8b4    0000000c     --HOLE-- [fill = 0]
                  7000f8c0    000000e0     drivers.am64x.r5f.ti-arm-clang.release.lib : udma_ch.obj (.text.Udma_chClose)
                  7000f9a0    000000e0                                                : udma_rm.obj (.text.Udma_rmAllocBlkCopyCh)
                  7000fa80    000000e0                                                : udma_rm.obj (.text.Udma_rmAllocBlkCopyHcCh)
                  7000fb60    000000e0                                                : udma_rm.obj (.text.Udma_rmAllocBlkCopyUhcCh)
                  7000fc40    000000e0                                                : udma_rm.obj (.text.Udma_rmAllocIrIntr)
                  7000fd20    000000e0                                                : udma_rm.obj (.text.Udma_rmAllocRxCh)
                  7000fe00    000000e0                                                : udma_rm.obj (.text.Udma_rmAllocRxHcCh)
                  7000fee0    000000e0                                                : udma_rm.obj (.text.Udma_rmAllocRxUhcCh)
                  7000ffc0    000000e0                                                : udma_rm.obj (.text.Udma_rmAllocTxCh)
                  700100a0    000000e0                                                : udma_rm.obj (.text.Udma_rmAllocTxHcCh)
                  70010180    000000e0                                                : udma_rm.obj (.text.Udma_rmAllocTxUhcCh)
                  70010260    000000dc                                                : sciclient.obj (.text.Sciclient_sendMessage)
                  7001033c    00000004     --HOLE-- [fill = 0]
                  70010340    000000dc                                                : udma_ring_lcdma.obj (.text.Udma_ringSetCfgLcdma)
                  7001041c    00000004     --HOLE-- [fill = 0]
                  70010420    000000d8                                                : sciclient_rm_irq.obj (.text.Sciclient_rmIrOutpIsFree)
                  700104f8    00000008     --HOLE-- [fill = 0]
                  70010500    000000d8     main.obj (.text.main)
                  700105d8    00000008     --HOLE-- [fill = 0]
                  700105e0    000000d4     drivers.am64x.r5f.ti-arm-clang.release.lib : lpddr4.obj (.text.LPDDR4_Start)
                  700106b4    0000000c     --HOLE-- [fill = 0]
                  700106c0    000000d0     board.am64x.r5f.ti-arm-clang.release.lib : flash_nor_xspi.obj (.text.Flash_norXspiRegWrite)
                  70010790    000000cc     drivers.am64x.r5f.ti-arm-clang.release.lib : csl_bcdma.obj (.text.CSL_bcdmaDoChanOp)
                  7001085c    00000004     --HOLE-- [fill = 0]
                  70010860    000000cc                                                : mmcsd_priv.obj (.text.MMCSD_parseCSDSd)
                  7001092c    00000004     --HOLE-- [fill = 0]
                  70010930    000000c8                                                : udma_rm.obj (.text.Udma_rmAllocMappedRing)
                  700109f8    00000008     --HOLE-- [fill = 0]
                  70010a00    000000c4                                                : ospi_phy.obj (.text.OSPI_phyTuneDDR)
                  70010ac4    0000000c     --HOLE-- [fill = 0]
                  70010ad0    000000c4                                                : sciclient_boardcfg.obj (.text.Sciclient_boardCfg)
                  70010b94    0000000c     --HOLE-- [fill = 0]
                  70010ba0    000000c4                                                : sciclient_boardcfg.obj (.text.Sciclient_boardCfgPm)
                  70010c64    0000000c     --HOLE-- [fill = 0]
                  70010c70    000000c4                                                : sciclient_boardcfg.obj (.text.Sciclient_boardCfgRm)
                  70010d34    0000000c     --HOLE-- [fill = 0]
                  70010d40    000000c4                                                : sciclient_boardcfg.obj (.text.Sciclient_boardCfgSec)
                  70010e04    0000000c     --HOLE-- [fill = 0]
                  70010e10    000000c0                                                : mmcsd_priv.obj (.text.MMCSD_parseECSDEmmc)
                  70010ed0    000000c0                                                : uart_v0.obj (.text.UART_init)
                  70010f90    000000bc                                                : ospi_dma_udma.obj (.text.OspiDma_udmaCopy)
                  7001104c    00000004     --HOLE-- [fill = 0]
                  70011050    000000b8                                                : csl_pktdma.obj (.text.CSL_pktdmaTeardownChan)
                  70011108    00000008     --HOLE-- [fill = 0]
                  70011110    000000b8                                                : sciclient_pm.obj (.text.Sciclient_pmGetModuleClkNumParent)
                  700111c8    00000008     --HOLE-- [fill = 0]
                  700111d0    000000b4     nortos.am64x.r5f.ti-arm-clang.release.lib : ClockP_nortos.obj (.text.ClockP_timerTickIsr)
                  70011284    0000000c     --HOLE-- [fill = 0]
                  70011290    000000b4     drivers.am64x.r5f.ti-arm-clang.release.lib : soc.obj (.text.SOC_moduleClockEnable)
                  70011344    0000000c     --HOLE-- [fill = 0]
                  70011350    000000b4                                                : uart_v0.obj (.text.UART_readCancelNoCB)
                  70011404    0000000c     --HOLE-- [fill = 0]
                  70011410    000000b4     nortos.am64x.r5f.ti-arm-clang.release.lib : printf.obj (.text._ntoa_long)
                  700114c4    0000000c     --HOLE-- [fill = 0]
                  700114d0    000000b0     drivers.am64x.r5f.ti-arm-clang.release.lib : mmcsd_priv.obj (.text.MMCSD_parseCIDEmmc)
                  70011580    000000b0                                                : sciclient_pm.obj (.text.Sciclient_pmGetModuleState)
                  70011630    000000a8                                                : mmcsd_v0.obj (.text.MMCSD_init)
                  700116d8    00000008     --HOLE-- [fill = 0]
                  700116e0    000000a8                                                : mmcsd_v0.obj (.text.MMCSD_isReadyForTransfer)
                  70011788    00000008     --HOLE-- [fill = 0]
                  70011790    000000a8                                                : ospi_v0.obj (.text.OSPI_init)
                  70011838    00000008     --HOLE-- [fill = 0]
                  70011840    000000a4                                                : mmcsd_v0.obj (.text.MMCSD_phyInit)
                  700118e4    0000000c     --HOLE-- [fill = 0]
                  700118f0    000000a4                                                : udma_ring_lcdma.obj (.text.Udma_ringFlushRawLcdma)
                  70011994    0000000c     --HOLE-- [fill = 0]
                  700119a0    000000a0                                                : sciclient_pm.obj (.text.Sciclient_pmGetModuleClkParent)
                  70011a40    000000a0                                                : sciclient_rm_irq.obj (.text.Sciclient_rmIrqGetNode)
                  70011ae0    000000a0                                                : udma_ring_common.obj (.text.Udma_ringFree)
                  70011b80    0000009c     board.am64x.r5f.ti-arm-clang.release.lib : flash_nor_xspi.obj (.text.Flash_norXspiRead)
                  70011c1c    00000004     --HOLE-- [fill = 0]
                  70011c20    0000009c     drivers.am64x.r5f.ti-arm-clang.release.lib : mmcsd_priv.obj (.text.MMCSD_parseCIDSd)
                  70011cbc    00000004     --HOLE-- [fill = 0]
                  70011cc0    0000009c                                                : sciclient_pm.obj (.text.Sciclient_pmModuleGetClkStatus)
                  70011d5c    00000004     --HOLE-- [fill = 0]
                  70011d60    00000098     nortos.am64x.r5f.ti-arm-clang.release.lib : AddrTranslateP.obj (.text.AddrTranslateP_getLocalAddr)
                  70011df8    00000008     --HOLE-- [fill = 0]
                  70011e00    00000098     drivers.am64x.r5f.ti-arm-clang.release.lib : csl_pktdma.obj (.text.CSL_pktdmaAccessChanPeerReg)
                  70011e98    00000008     --HOLE-- [fill = 0]
                  70011ea0    00000098                                                : ospi_dma_udma.obj (.text.OspiDma_udmaClose)
                  70011f38    00000008     --HOLE-- [fill = 0]
                  70011f40    00000094     ti_board_open_close.obj (.text.Board_flashOpen)
                  70011fd4    0000000c     --HOLE-- [fill = 0]
                  70011fe0    00000094     drivers.am64x.r5f.ti-arm-clang.release.lib : ospi_v0.obj (.text.OSPI_close)
                  70012074    0000000c     --HOLE-- [fill = 0]
                  70012080    00000094                                                : ospi_phy.obj (.text.OSPI_phyFindRxHigh)
                  70012114    0000000c     --HOLE-- [fill = 0]
                  70012120    00000094                                                : ospi_phy.obj (.text.OSPI_phyFindRxLow)
                  700121b4    0000000c     --HOLE-- [fill = 0]
                  700121c0    00000094                                                : ospi_phy.obj (.text.OSPI_phyFindTxHigh)
                  70012254    0000000c     --HOLE-- [fill = 0]
                  70012260    00000094                                                : ospi_phy.obj (.text.OSPI_phyFindTxLow)
                  700122f4    0000000c     --HOLE-- [fill = 0]
                  70012300    00000094                                                : sciclient_pm.obj (.text.Sciclient_pmSetModuleClkParent)
                  70012394    0000000c     --HOLE-- [fill = 0]
                  700123a0    00000094                                                : sciclient_pm.obj (.text.Sciclient_pmSetModuleState)
                  70012434    0000000c     --HOLE-- [fill = 0]
                  70012440    00000094                                                : udma_rm.obj (.text.Udma_rmAllocVintrBit)
                  700124d4    0000000c     --HOLE-- [fill = 0]
                  700124e0    00000090                                                : csl_bcdma.obj (.text.CSL_bcdmaChanOpSetChanPause)
                  70012570    00000090                                                : udma_ring_common.obj (.text.Udma_ringQueueRaw)
                  70012600    0000008c                                                : ospi_v0.obj (.text.OSPI_setXferOpCodes)
                  7001268c    00000004     --HOLE-- [fill = 0]
                  70012690    0000008c                                                : sciclient_soc_priv.obj (.text.Sciclient_getContext)
                  7001271c    00000004     --HOLE-- [fill = 0]
                  70012720    0000008c                                                : sciclient_pm.obj (.text.Sciclient_pmModuleClkRequest)
                  700127ac    00000004     --HOLE-- [fill = 0]
                  700127b0    00000088                                                : ospi_phy.obj (.text.OSPI_phyResyncDLL)
                  70012838    00000008     --HOLE-- [fill = 0]
                  70012840    00000088     ti_drivers_config.obj (.text.System_init)
                  700128c8    00000008     --HOLE-- [fill = 0]
                  700128d0    00000088     drivers.am64x.r5f.ti-arm-clang.release.lib : udma_ring_common.obj (.text.Udma_ringDequeueRaw)
                  70012958    00000008     --HOLE-- [fill = 0]
                  70012960    00000088                                                : udma_rm.obj (.text.Udma_rmFreeMappedRing)
                  700129e8    00000008     --HOLE-- [fill = 0]
                  700129f0    00000088     nortos.am64x.r5f.ti-arm-clang.release.lib : DebugP_log.obj (.text._DebugP_assert)
                  70012a78    00000008     --HOLE-- [fill = 0]
                  70012a80    00000084     drivers.am64x.r5f.ti-arm-clang.release.lib : mmcsd_v0.obj (.text.MMCSD_cmdStatusPollingFxn)
                  70012b04    0000000c     --HOLE-- [fill = 0]
                  70012b10    00000084                                                : mmcsd_v0.obj (.text.MMCSD_halSendCommand)
                  70012b94    0000000c     --HOLE-- [fill = 0]
                  70012ba0    00000084                                                : sciclient_rm.obj (.text.Sciclient_rmGetResourceRange)
                  70012c24    0000000c     --HOLE-- [fill = 0]
                  70012c30    00000084                                                : udma_event.obj (.text.Udma_eventIsrFxn)
                  70012cb4    0000000c     --HOLE-- [fill = 0]
                  70012cc0    00000080     board.am64x.r5f.ti-arm-clang.release.lib : flash.obj (.text.Flash_offsetToBlkPage)
                  70012d40    00000080     drivers.am64x.r5f.ti-arm-clang.release.lib : lpddr4.obj (.text.LPDDR4_ReadReg)
                  70012dc0    00000080                                                : sciclient.obj (.text.Sciclient_abiCheck)
                  70012e40    00000080                                                : udma_rm.obj (.text.Udma_rmAllocEvent)
                  70012ec0    00000080                                                : udma_rm.obj (.text.Udma_rmAllocVintr)
                  70012f40    0000007c     nortos.am64x.r5f.ti-arm-clang.release.lib : ClockP_nortos.obj (.text.ClockP_addToList)
                  70012fbc    00000004     --HOLE-- [fill = 0]
                  70012fc0    0000007c     drivers.am64x.r5f.ti-arm-clang.release.lib : udma_ch.obj (.text.UdmaChTxPrms_init)
                  7001303c    00000004     --HOLE-- [fill = 0]
                  70013040    0000007c                                                : udma_utils.obj (.text.UdmaUtils_makeTrpd)
                  700130bc    00000004     --HOLE-- [fill = 0]
                  700130c0    00000078                                                : ospi_phy.obj (.text.OSPI_phyReadAttackVector)
                  70013138    00000008     --HOLE-- [fill = 0]
                  70013140    00000078                                                : sciclient_pm.obj (.text.Sciclient_pmSetModuleRst)
                  700131b8    00000008     --HOLE-- [fill = 0]
                  700131c0    00000078                                                : uart_v0.obj (.text.UART_writeCancelNoCB)
                  70013238    00000008     --HOLE-- [fill = 0]
                  70013240    00000074     nortos.am64x.r5f.ti-arm-clang.release.lib : ClockP_nortos.obj (.text.ClockP_stop)
                  700132b4    0000000c     --HOLE-- [fill = 0]
                  700132c0    00000074     ti_drivers_open_close.obj (.text.Drivers_mmcsdOpen)
                  70013334    0000000c     --HOLE-- [fill = 0]
                  70013340    00000074     ti_drivers_open_close.obj (.text.Drivers_ospiOpen)
                  700133b4    0000000c     --HOLE-- [fill = 0]
                  700133c0    00000074     ti_drivers_open_close.obj (.text.Drivers_uartOpen)
                  70013434    0000000c     --HOLE-- [fill = 0]
                  70013440    00000074     drivers.am64x.r5f.ti-arm-clang.release.lib : sciclient_rm.obj (.text.Sciclient_rmPsilPair)
                  700134b4    0000000c     --HOLE-- [fill = 0]
                  700134c0    00000074                                                : sciclient_rm.obj (.text.Sciclient_rmPsilUnpair)
                  70013534    00000074     libc.a : snprintf.c.obj (.text.snprintf)
                  700135a8    00000008     --HOLE-- [fill = 0]
                  700135b0    00000070     drivers.am64x.r5f.ti-arm-clang.release.lib : lpddr4.obj (.text.LPDDR4_Init)
                  70013620    00000070                                                : lpddr4.obj (.text.LPDDR4_WritePhyConfig)
                  70013690    00000070                                                : sciclient_rm.obj (.text.Sciclient_rmIrqSetRaw)
                  70013700    00000070                                                : sciclient_rm.obj (.text.Sciclient_rmRingCfg)
                  70013770    00000070                                                : sciclient_rm.obj (.text.Sciclient_rmUdmapFlowCfg)
                  700137e0    00000070                                                : sciclient_rm.obj (.text.Sciclient_rmUdmapFlowSizeThreshCfg)
                  70013850    00000070                                                : sciclient_rm.obj (.text.Sciclient_rmUdmapRxChCfg)
                  700138c0    00000070                                                : sciclient_rm.obj (.text.Sciclient_rmUdmapTxChCfg)
                  70013930    00000070                                                : bootloader_xmodem.obj (.text._inbyte)
                  700139a0    0000006c                                                : csl_bcdma.obj (.text.CSL_bcdmaGetCfg)
                  70013a0c    00000004     --HOLE-- [fill = 0]
                  70013a10    0000006c     nortos.am64x.r5f.ti-arm-clang.release.lib : ClockP_nortos.obj (.text.ClockP_construct)
                  70013a7c    00000004     --HOLE-- [fill = 0]
                  70013a80    0000006c     drivers.am64x.r5f.ti-arm-clang.release.lib : lpddr4.obj (.text.LPDDR4_WritePhyIndepConfig)
                  70013aec    00000004     --HOLE-- [fill = 0]
                  70013af0    0000006c                                                : ospi_v0.obj (.text.OSPI_enablePhy)
                  70013b5c    00000004     --HOLE-- [fill = 0]
                  70013b60    0000006c                                                : udma_ring_common.obj (.text.Udma_ringFlushRaw)
                  70013bcc    00000004     --HOLE-- [fill = 0]
                  70013bd0    0000006c                                                : udma_rm.obj (.text.Udma_rmFreeVintrBit)
                  70013c3c    0000006c     libc.a : atoi.c.obj (.text.atoi)
                  70013ca8    00000008     --HOLE-- [fill = 0]
                  70013cb0    00000068     drivers.am64x.r5f.ti-arm-clang.release.lib : lpddr4.obj (.text.LPDDR4_WriteCtlConfig)
                  70013d18    00000008     --HOLE-- [fill = 0]
                  70013d20    00000068                                                : mmcsd_v0.obj (.text.MMCSD_close)
                  70013d88    00000008     --HOLE-- [fill = 0]
                  70013d90    00000068                                                : ospi_dma.obj (.text.OSPI_dmaOpen)
                  70013df8    00000008     --HOLE-- [fill = 0]
                  70013e00    00000068                                                : udma_event.obj (.text.UdmaEventPrms_init)
                  70013e68    00000008     --HOLE-- [fill = 0]
                  70013e70    00000068                                                : udma_ring_lcdma.obj (.text.Udma_ringSetDoorBellLcdma)
                  70013ed8    00000008     --HOLE-- [fill = 0]
                  70013ee0    00000064     nortos.am64x.r5f.ti-arm-clang.release.lib : ClockP_nortos.obj (.text.ClockP_getTimeUsec)
                  70013f44    0000000c     --HOLE-- [fill = 0]
                  70013f50    00000064     drivers.am64x.r5f.ti-arm-clang.release.lib : mmcsd_v0.obj (.text.MMCSD_halSetBusWidth)
                  70013fb4    0000000c     --HOLE-- [fill = 0]
                  70013fc0    00000064                                                : ospi_phy.obj (.text.OSPI_phySetRdDelayTxRxDLL)
                  70014024    0000000c     --HOLE-- [fill = 0]
                  70014030    00000060                                                : csl_pktdma.obj (.text.CSL_pktdmaGetCfg)
                  70014090    00000060                                                : udma_ch.obj (.text.UdmaChRxPrms_init)
                  700140f0    00000060                                                : udma_flow.obj (.text.UdmaFlowPrms_init)
                  70014150    00000060     nortos.am64x.r5f.ti-arm-clang.release.lib : DebugP_nortos.obj (.text._DebugP_logZone)
                  700141b0    0000005c     drivers.am64x.r5f.ti-arm-clang.release.lib : csl_intaggr.obj (.text.CSL_intaggrClrIntr)
                  7001420c    00000004     --HOLE-- [fill = 0]
                  70014210    0000005c     nortos.am64x.r5f.ti-arm-clang.release.lib : ClockP_nortos.obj (.text.ClockP_destruct)
                  7001426c    00000004     --HOLE-- [fill = 0]
                  70014270    0000005c     drivers.am64x.r5f.ti-arm-clang.release.lib : mmcsd_v0.obj (.text.MMCSD_halBusPower)
                  700142cc    00000004     --HOLE-- [fill = 0]
                  700142d0    0000005c                                                : mmcsd_priv.obj (.text.MMCSD_parseCSDEmmc)
                  7001432c    00000004     --HOLE-- [fill = 0]
                  70014330    0000005c     nortos.am64x.r5f.ti-arm-clang.release.lib : SemaphoreP_nortos.obj (.text.SemaphoreP_constructBinary)
                  7001438c    0000005c     libc.a : autoinit.c.obj (.text:__TI_auto_init_nobinit_nopinit)
                  700143e8    00000008     --HOLE-- [fill = 0]
                  700143f0    00000058     drivers.am64x.r5f.ti-arm-clang.release.lib : csl_intaggr.obj (.text.CSL_intaggrIsIntrPending)
                  70014448    00000008     --HOLE-- [fill = 0]
                  70014450    00000058                                                : lpddr4.obj (.text.LPDDR4_PollCtlIrq)
                  700144a8    00000008     --HOLE-- [fill = 0]
                  700144b0    00000058                                                : ospi_v0.obj (.text.OSPI_setXferLines)
                  70014508    00000008     --HOLE-- [fill = 0]
                  70014510    00000058     nortos.am64x.r5f.ti-arm-clang.release.lib : SemaphoreP_nortos.obj (.text.SemaphoreP_constructMutex)
                  70014568    00000008     --HOLE-- [fill = 0]
                  70014570    00000058                                               : SemaphoreP_nortos.obj (.text.SemaphoreP_post)
                  700145c8    00000008     --HOLE-- [fill = 0]
                  700145d0    00000058     drivers.am64x.r5f.ti-arm-clang.release.lib : udma_ch.obj (.text.UdmaChPrms_init)
                  70014628    00000008     --HOLE-- [fill = 0]
                  70014630    00000058                                                : udma_ring_lcdma.obj (.text.Udma_lcdmaRingaccMemOps)
                  70014688    00000008     --HOLE-- [fill = 0]
                  70014690    00000058                                                : udma_rm.obj (.text.Udma_rmFreeMappedRxCh)
                  700146e8    00000008     --HOLE-- [fill = 0]
                  700146f0    00000058                                                : udma_rm.obj (.text.Udma_rmFreeMappedTxCh)
                  70014748    00000008     --HOLE-- [fill = 0]
                  70014750    00000058                                                : bootloader_xmodem.obj (.text._outbyte)
                  700147a8    00000058     libc.a : snprintf.c.obj (.text._outs)
                  70014800    00000054     ti_dpl_config.obj (.text.Dpl_init)
                  70014854    0000000c     --HOLE-- [fill = 0]
                  70014860    00000054     board.am64x.r5f.ti-arm-clang.release.lib : flash.obj (.text.Flash_open)
                  700148b4    0000000c     --HOLE-- [fill = 0]
                  700148c0    00000054     drivers.am64x.r5f.ti-arm-clang.release.lib : mmcsd_v0.obj (.text.MMCSD_halCmdResponseGet)
                  70014914    0000000c     --HOLE-- [fill = 0]
                  70014920    00000054                                                : mmcsd_v0.obj (.text.MMCSD_halSoftReset)
                  70014974    0000000c     --HOLE-- [fill = 0]
                  70014980    00000054                                                : ospi_v0.obj (.text.OSPI_disablePhy)
                  700149d4    0000000c     --HOLE-- [fill = 0]
                  700149e0    00000054                                                : udma_ring_lcdma.obj (.text.Udma_ringPrimeReadLcdma)
                  70014a34    0000000c     --HOLE-- [fill = 0]
                  70014a40    00000050                                                : soc.obj (.text.SOC_controlModuleUnlockMMR)
                  70014a90    00000050                                                : udma_soc.obj (.text.Udma_getMappedChRingAttributes)
                  70014ae0    00000050                                                : udma_rm.obj (.text.Udma_rmFreeBlkCopyCh)
                  70014b30    00000050                                                : udma_rm.obj (.text.Udma_rmFreeBlkCopyHcCh)
                  70014b80    00000050                                                : udma_rm.obj (.text.Udma_rmFreeBlkCopyUhcCh)
                  70014bd0    00000050                                                : udma_rm.obj (.text.Udma_rmFreeEvent)
                  70014c20    00000050                                                : udma_rm.obj (.text.Udma_rmFreeIrIntr)
                  70014c70    00000050                                                : udma_rm.obj (.text.Udma_rmFreeRxCh)
                  70014cc0    00000050                                                : udma_rm.obj (.text.Udma_rmFreeRxHcCh)
                  70014d10    00000050                                                : udma_rm.obj (.text.Udma_rmFreeRxUhcCh)
                  70014d60    00000050                                                : udma_rm.obj (.text.Udma_rmFreeTxCh)
                  70014db0    00000050                                                : udma_rm.obj (.text.Udma_rmFreeTxHcCh)
                  70014e00    00000050                                                : udma_rm.obj (.text.Udma_rmFreeTxUhcCh)
                  70014e50    00000050                                                : udma_rm.obj (.text.Udma_rmFreeVintr)
                  70014ea0    0000004c                                                : bootloader_xmodem.obj (.text.Bootloader_xmodemReceive)
                  70014eec    00000004     --HOLE-- [fill = 0]
                  70014ef0    0000004c                                                : bootloader_xmodem.obj (.text.Bootloader_xmodemTransmit)
                  70014f3c    00000004     --HOLE-- [fill = 0]
                  70014f40    0000004c     nortos.am64x.r5f.ti-arm-clang.release.lib : ClockP_nortos.obj (.text.ClockP_start)
                  70014f8c    00000004     --HOLE-- [fill = 0]
                  70014f90    0000004c     drivers.am64x.r5f.ti-arm-clang.release.lib : ospi_v0.obj (.text.OSPI_setDeviceSize)
                  70014fdc    00000004     --HOLE-- [fill = 0]
                  70014fe0    0000004c                                                : udma_ring_common.obj (.text.UdmaRingPrms_init)
                  7001502c    00000004     --HOLE-- [fill = 0]
                  70015030    0000004c                                                : udma_ch.obj (.text.Udma_chGetCqRingNum)
                  7001507c    00000004     --HOLE-- [fill = 0]
                  70015080    0000004c                                                : udma_rmcfg.obj (.text.Udma_rmGetSharedResPrms)
                  700150cc    00000004     --HOLE-- [fill = 0]
                  700150d0    00000048                                                : mmcsd_v0.obj (.text.MMCSD_halLinesResetCmd)
                  70015118    00000008     --HOLE-- [fill = 0]
                  70015120    00000048                                                : mmcsd_v0.obj (.text.MMCSD_halLinesResetDat)
                  70015168    00000008     --HOLE-- [fill = 0]
                  70015170    00000048     ti_power_clock_config.obj (.text.Module_clockSetFrequency)
                  700151b8    00000048     libc.a : memccpy.c.obj (.text.memccpy)
                  70015200    00000044     nortos.am64x.r5f.ti-arm-clang.release.lib : ClockP_nortos.obj (.text.ClockP_sleepTicks)
                  70015244    0000000c     --HOLE-- [fill = 0]
                  70015250    00000044     drivers.am64x.r5f.ti-arm-clang.release.lib : mmcsd_v0.obj (.text.MMCSD_getHandle)
                  70015294    0000000c     --HOLE-- [fill = 0]
                  700152a0    00000044                                                : ospi_dma.obj (.text.OSPI_dmaCopy)
                  700152e4    0000000c     --HOLE-- [fill = 0]
                  700152f0    00000044                                                : ospi_v0.obj (.text.OSPI_getHandle)
                  70015334    0000000c     --HOLE-- [fill = 0]
                  70015340    00000044                                                : uart_v0.obj (.text.UART_getHandle)
                  70015384    0000000c     --HOLE-- [fill = 0]
                  70015390    00000044                                                : udma_ring_lcdma.obj (.text.Udma_ringGetForwardRingOccLcdma)
                  700153d4    0000000c     --HOLE-- [fill = 0]
                  700153e0    00000044                                                : udma_ring_lcdma.obj (.text.Udma_ringGetReverseRingOccLcdma)
                  70015424    0000000c     --HOLE-- [fill = 0]
                  70015430    00000040                                                : csl_intaggr.obj (.text.CSL_intaggrGetCfg)
                  70015470    00000040     nortos.am64x.r5f.ti-arm-clang.release.lib : ClockP_nortos.obj (.text.ClockP_usleep)
                  700154b0    00000040     drivers.am64x.r5f.ti-arm-clang.release.lib : mmcsd_priv.obj (.text.MMCSD_parseSCRSd)
                  700154f0    00000040     ti_power_clock_config.obj (.text.Module_clockEnable)
                  70015530    00000040     drivers.am64x.r5f.ti-arm-clang.release.lib : udma_ch.obj (.text.Udma_chGetCqRingHandle)
                  70015570    00000040                                                : udma_ch.obj (.text.Udma_chGetFqRingHandle)
                  700155b0    00000040                                                : udma_utils.obj (.text.Udma_phyToVirtFxn)
                  700155f0    00000040                                                : crc16.obj (.text.crc16_ccitt)
                  70015630    0000003c                                                : csl_bcdma.obj (.text.CSL_bcdmaGetChanPeerReg)
                  7001566c    00000004     --HOLE-- [fill = 0]
                  70015670    0000003c                                                : ospi_dma.obj (.text.OSPI_dmaClose)
                  700156ac    00000004     --HOLE-- [fill = 0]
                  700156b0    0000003c                                                : udma_utils.obj (.text.UdmaUtils_makeTrpdTr15)
                  700156ec    00000004     --HOLE-- [fill = 0]
                  700156f0    0000003c                                                : udma_ring_lcdma.obj (.text.Udma_ringPrimeLcdma)
                  7001572c    00000004     --HOLE-- [fill = 0]
                  70015730    00000038                                                : csl_bcdma.obj (.text.CSL_bcdmaSetChanPeerReg)
                  70015768    00000008     --HOLE-- [fill = 0]
                  70015770    00000038                                                : csl_pktdma.obj (.text.CSL_pktdmaGetRxRT)
                  700157a8    00000008     --HOLE-- [fill = 0]
                  700157b0    00000038                                                : csl_pktdma.obj (.text.CSL_pktdmaGetTxRT)
                  700157e8    00000008     --HOLE-- [fill = 0]
                  700157f0    00000038                                                : soc.obj (.text.SOC_controlModuleLockMMR)
                  70015828    00000008     --HOLE-- [fill = 0]
                  70015830    00000038                                                : uart_v0.obj (.text.UART_statusIsDataReady)
                  70015868    00000008     --HOLE-- [fill = 0]
                  70015870    00000038                                                : udma_utils.obj (.text.Udma_virtToPhyFxn)
                  700158a8    00000008     --HOLE-- [fill = 0]
                  700158b0    00000034                                                : ospi_v0.obj (.text.OSPI_setNumAddrBytes)
                  700158e4    0000000c     --HOLE-- [fill = 0]
                  700158f0    00000030                                                : csl_bcdma.obj (.text.CSL_bcdmaTeardownRxChan)
                  70015920    00000030                                                : csl_bcdma.obj (.text.CSL_bcdmaTeardownTxChan)
                  70015950    00000030     nortos.am64x.r5f.ti-arm-clang.release.lib : DebugP_log.obj (.text.DebugP_logZoneEnable)
                  70015980    00000030     drivers.am64x.r5f.ti-arm-clang.release.lib : ospi_v0.obj (.text.OSPI_enableDacMode)
                  700159b0    00000030                                                : ospi_v0.obj (.text.OSPI_setRdDataCaptureDelay)
                  700159e0    00000030     libc.a : snprintf.c.obj (.text._outc)
                  70015a10    0000002c     drivers.am64x.r5f.ti-arm-clang.release.lib : csl_lcdma_ringacc.obj (.text.CSL_lcdma_ringaccPush64)
                  70015a3c    00000004     --HOLE-- [fill = 0]
                  70015a40    0000002c                                                : sciclient.obj (.text.Sciclient_getCurrentContext)
                  70015a6c    00000004     --HOLE-- [fill = 0]
                  70015a70    0000002c     nortos.am64x.r5f.ti-arm-clang.release.lib : printf.obj (.text.vprintf_)
                  70015a9c    00000004     --HOLE-- [fill = 0]
                  70015aa0    00000028     drivers.am64x.r5f.ti-arm-clang.release.lib : csl_pktdma.obj (.text.CSL_pktdmaGetChanPeerReg)
                  70015ac8    00000008     --HOLE-- [fill = 0]
                  70015ad0    00000028                                                : csl_pktdma.obj (.text.CSL_pktdmaSetChanPeerReg)
                  70015af8    00000008     --HOLE-- [fill = 0]
                  70015b00    00000028                                                : csl_pktdma.obj (.text.CSL_pktdmaSetRxRT)
                  70015b28    00000008     --HOLE-- [fill = 0]
                  70015b30    00000028                                                : csl_pktdma.obj (.text.CSL_pktdmaSetTxRT)
                  70015b58    00000008     --HOLE-- [fill = 0]
                  70015b60    00000028     board.am64x.r5f.ti-arm-clang.release.lib : flash.obj (.text.Flash_eraseBlk)
                  70015b88    00000008     --HOLE-- [fill = 0]
                  70015b90    00000028                                              : flash.obj (.text.Flash_getAttrs)
                  70015bb8    00000008     --HOLE-- [fill = 0]
                  70015bc0    00000028                                              : flash.obj (.text.Flash_getHandle)
                  70015be8    00000008     --HOLE-- [fill = 0]
                  70015bf0    00000028                                              : flash.obj (.text.Flash_read)
                  70015c18    00000008     --HOLE-- [fill = 0]
                  70015c20    00000028                                              : flash.obj (.text.Flash_write)
                  70015c48    00000008     --HOLE-- [fill = 0]
                  70015c50    00000028     drivers.am64x.r5f.ti-arm-clang.release.lib : ospi_v0.obj (.text.OSPI_ReadCmdParams_init)
                  70015c78    00000008     --HOLE-- [fill = 0]
                  70015c80    00000028                                                : ospi_v0.obj (.text.OSPI_WriteCmdParams_init)
                  70015ca8    00000008     --HOLE-- [fill = 0]
                  70015cb0    00000028                                                : ospi_v0.obj (.text.OSPI_disablePhyPipeline)
                  70015cd8    00000008     --HOLE-- [fill = 0]
                  70015ce0    00000028                                                : ospi_v0.obj (.text.OSPI_enableDDR)
                  70015d08    00000008     --HOLE-- [fill = 0]
                  70015d10    00000028                                                : ospi_v0.obj (.text.OSPI_enableSDR)
                  70015d38    00000008     --HOLE-- [fill = 0]
                  70015d40    00000028                                                : ospi_v0.obj (.text.OSPI_setCmdDummyCycles)
                  70015d68    00000008     --HOLE-- [fill = 0]
                  70015d70    00000028                                                : ospi_v0.obj (.text.OSPI_setReadDummyCycles)
                  70015d98    00000008     --HOLE-- [fill = 0]
                  70015da0    00000028     ti_pinmux_config.obj (.text.Pinmux_init)
                  70015dc8    00000008     --HOLE-- [fill = 0]
                  70015dd0    00000028     nortos.am64x.r5f.ti-arm-clang.release.lib : TimerP.obj (.text.TimerP_Params_init)
                  70015df8    00000008     --HOLE-- [fill = 0]
                  70015e00    00000028     drivers.am64x.r5f.ti-arm-clang.release.lib : udma_ring_lcdma.obj (.text.Udma_ringGetElementCntLcdma)
                  70015e28    00000008     --HOLE-- [fill = 0]
                  70015e30    00000028                                                : udma_ring_lcdma.obj (.text.Udma_ringGetMemPtrLcdma)
                  70015e58    00000008     --HOLE-- [fill = 0]
                  70015e60    00000028                                                : udma_ring_lcdma.obj (.text.Udma_ringGetModeLcdma)
                  70015e88    00000008     --HOLE-- [fill = 0]
                  70015e90    00000028                                                : udma_ring_common.obj (.text.Udma_ringGetNum)
                  70015eb8    00000008     --HOLE-- [fill = 0]
                  70015ec0    00000028                                                : udma_ring_lcdma.obj (.text.Udma_ringGetRdIdxLcdma)
                  70015ee8    00000008     --HOLE-- [fill = 0]
                  70015ef0    00000028                                                : udma_ring_lcdma.obj (.text.Udma_ringGetWrIdxLcdma)
                  70015f18    00000008     --HOLE-- [fill = 0]
                  70015f20    00000028                                                : udma_ring_lcdma.obj (.text.Udma_ringQueueRawLcdma)
                  70015f48    00000008     --HOLE-- [fill = 0]
                  70015f50    00000024     board.am64x.r5f.ti-arm-clang.release.lib : flash.obj (.text.Flash_close)
                  70015f74    0000000c     --HOLE-- [fill = 0]
                  70015f80    00000024     drivers.am64x.r5f.ti-arm-clang.release.lib : ospi_v0.obj (.text.OSPI_Transaction_init)
                  70015fa4    0000000c     --HOLE-- [fill = 0]
                  70015fb0    00000024                                                : udma_utils.obj (.text.UdmaUtils_getRingMemSize)
                  70015fd4    0000000c     --HOLE-- [fill = 0]
                  70015fe0    00000024                                                : udma_ring_lcdma.obj (.text.Udma_ringDequeueRawLcdma)
                  70016004    0000000c     --HOLE-- [fill = 0]
                  70016010    00000024     nortos.am64x.r5f.ti-arm-clang.release.lib : boot_armv7r.obj (.text._system_pre_init)
                  70016034    00000024     libclang_rt.builtins.a : aeabi_uldivmod.S.obj (.text)
                  70016058    00000008     --HOLE-- [fill = 0]
                  70016060    00000020     drivers.am64x.r5f.ti-arm-clang.release.lib : csl_bcdma.obj (.text.CSL_bcdmaGetRxRT)
                  70016080    00000020                                                : csl_bcdma.obj (.text.CSL_bcdmaGetTxRT)
                  700160a0    00000020                                                : csl_bcdma.obj (.text.CSL_bcdmaSetRxRT)
                  700160c0    00000020                                                : csl_bcdma.obj (.text.CSL_bcdmaSetTxRT)
                  700160e0    00000020                                                : lpddr4.obj (.text.LPDDR4_Probe)
                  70016100    00000020                                                : mmcsd_v0.obj (.text.MMCSD_getBlockSize)
                  70016120    00000020                                                : udma_rmcfg.obj (.text.Udma_rmGetDefBoardCfgPrms)
                  70016140    00000020     libc.a : wcslen.c.obj (.text.wcslen)
                  70016160    0000001c     drivers.am64x.r5f.ti-arm-clang.release.lib : csl_lcdma_ringacc.obj (.text.CSL_lcdma_ringaccInitRingObj)
                  7001617c    00000004     --HOLE-- [fill = 0]
                  70016180    0000001c                                                : csl_lcdma_ringacc.obj (.text.CSL_lcdma_ringaccPop64)
                  7001619c    00000004     --HOLE-- [fill = 0]
                  700161a0    0000001c     board.am64x.r5f.ti-arm-clang.release.lib : flash.obj (.text.Flash_getPhyTuningOffset)
                  700161bc    00000004     --HOLE-- [fill = 0]
                  700161c0    0000001c     drivers.am64x.r5f.ti-arm-clang.release.lib : ospi_v0.obj (.text.OSPI_setDualOpCodeMode)
                  700161dc    00000004     --HOLE-- [fill = 0]
                  700161e0    0000001c                                                : sciclient_soc_priv.obj (.text.Sciclient_getDevId)
                  700161fc    0000001c     libc.a : _printfi.c.obj (.text.strlen)
                  70016218    0000001c     libsysbm.a : memcpy32.S.obj (.text:TI_memcpy_small)
                  70016234    0000001c     libclang_rt.builtins.a : aeabi_memset.S.obj (.text)
                  70016250    00000018     drivers.am64x.r5f.ti-arm-clang.release.lib : csl_lcdma_ringacc.obj (.text.CSL_lcdma_ringaccGetReverseRingOcc)
                  70016268    00000008     --HOLE-- [fill = 0]
                  70016270    00000018                                                : ospi_phy.obj (.text.OSPI_phyGetTuningData)
                  70016288    00000008     --HOLE-- [fill = 0]
                  70016290    00000018     nortos.am64x.r5f.ti-arm-clang.release.lib : TimerP.obj (.text.TimerP_clearOverflowInt)
                  700162a8    00000008     --HOLE-- [fill = 0]
                  700162b0    00000018     drivers.am64x.r5f.ti-arm-clang.release.lib : udma_rm.obj (.text.Udma_rmTranslateCoreIntrInput)
                  700162c8    00000008     --HOLE-- [fill = 0]
                  700162d0    00000018                                                : udma_rm.obj (.text.Udma_rmTranslateIrOutput)
                  700162e8    00000018     libsysbm.a : memset32.S.obj (.text:TI_memset_small)
                  70016300    00000014     drivers.am64x.r5f.ti-arm-clang.release.lib : csl_lcdma_ringacc.obj (.text.CSL_lcdma_ringaccGetForwardRingOcc)
                  70016314    0000000c     --HOLE-- [fill = 0]
                  70016320    00000014                                                : csl_sec_proxy.obj (.text.CSL_secProxyGetDataAddr)
                  70016334    0000000c     --HOLE-- [fill = 0]
                  70016340    00000014     ti_drivers_open_close.obj (.text.Drivers_open)
                  70016354    0000000c     --HOLE-- [fill = 0]
                  70016360    00000014     drivers.am64x.r5f.ti-arm-clang.release.lib : ospi_v0.obj (.text.OSPI_getFlashDataBaseAddr)
                  70016374    0000000c     --HOLE-- [fill = 0]
                  70016380    00000010     nortos.am64x.r5f.ti-arm-clang.release.lib : ClockP_nortos.obj (.text.ClockP_Params_init)
                  70016390    00000010                                               : ClockP_nortos.obj (.text.ClockP_getTicks)
                  700163a0    00000010                                               : ClockP_nortos.obj (.text.ClockP_isActive)
                  700163b0    00000010     board.am64x.r5f.ti-arm-clang.release.lib : flash_nor_xspi.obj (.text.Flash_norXspiClose)
                  700163c0    00000010     drivers.am64x.r5f.ti-arm-clang.release.lib : ospi_v0.obj (.text.OSPI_setCmdExtType)
                  700163d0    00000010                                                : ospi_v0.obj (.text.OSPI_setPhyEnableSuccess)
                  700163e0    00000010     ti_power_clock_config.obj (.text.PowerClock_init)
                  700163f0    00000010     drivers.am64x.r5f.ti-arm-clang.release.lib : sciclient.obj (.text.Sciclient_getSelfDevIdCore)
                  70016400    00000010     nortos.am64x.r5f.ti-arm-clang.release.lib : TimerP.obj (.text.TimerP_start)
                  70016410    00000010     drivers.am64x.r5f.ti-arm-clang.release.lib : udma_ring_lcdma.obj (.text.Udma_ringHandleClearRegsLcdma)
                  70016420    0000000c                                                : ospi_v0.obj (.text.OSPI_getXferLines)
                  7001642c    00000004     --HOLE-- [fill = 0]
                  70016430    0000000c                                                : ospi_v0.obj (.text.OSPI_isDtrEnable)
                  7001643c    00000004     --HOLE-- [fill = 0]
                  70016440    0000000c                                                : ospi_v0.obj (.text.OSPI_isPhyEnable)
                  7001644c    00000004     --HOLE-- [fill = 0]
                  70016450    0000000c     nortos.am64x.r5f.ti-arm-clang.release.lib : printf.obj (.text._out_char)
                  7001645c    00000004     --HOLE-- [fill = 0]
                  70016460    00000008     drivers.am64x.r5f.ti-arm-clang.release.lib : csl_pktdma.obj (.text.CSL_pktdmaTeardownRxChan)
                  70016468    00000008     --HOLE-- [fill = 0]
                  70016470    00000008                                                : csl_pktdma.obj (.text.CSL_pktdmaTeardownTxChan)
                  70016478    00000008     --HOLE-- [fill = 0]
                  70016480    00000008     nortos.am64x.r5f.ti-arm-clang.release.lib : TimerP.obj (.text.TimerP_getCount)
                  70016488    00000008     --HOLE-- [fill = 0]
                  70016490    00000008                                               : TimerP.obj (.text.TimerP_getReloadCount)
                  70016498    00000008     --HOLE-- [fill = 0]
                  700164a0    00000008     drivers.am64x.r5f.ti-arm-clang.release.lib : udma_utils.obj (.text.Udma_defaultVirtToPhyFxn)
                  700164a8    00000008     --HOLE-- [fill = 0]
                  700164b0    00000008                                                : udma_soc.obj (.text.Udma_isCacheCoherent)
                  700164b8    00000008     --HOLE-- [fill = 0]
                  700164c0    00000008                                                : udma_rm.obj (.text.Udma_rmAllocFreeRing)
                  700164c8    00000008     --HOLE-- [fill = 0]
                  700164d0    00000004     ti_board_open_close.obj (.text.Board_driversOpen)
                  700164d4    0000000c     --HOLE-- [fill = 0]
                  700164e0    00000004     nortos.am64x.r5f.ti-arm-clang.release.lib : ClockP_nortos_r5.obj (.text.ClockP_getTimerCount)
                  700164e4    0000000c     --HOLE-- [fill = 0]
                  700164f0    00000004                                               : ClockP_nortos_r5.obj (.text.ClockP_timerClearOverflowInt)
                  700164f4    0000000c     --HOLE-- [fill = 0]
                  70016500    00000004     drivers.am64x.r5f.ti-arm-clang.release.lib : mmcsd_v0.obj (.text.MMCSD_isr)
                  70016504    0000000c     --HOLE-- [fill = 0]
                  70016510    00000004                                                : ospi_v0.obj (.text.OSPI_isr)
                  70016514    0000000c     --HOLE-- [fill = 0]
                  70016520    00000004                                                : sciclient_rm.obj (.text.Sciclient_rmIrqSet)
                  70016524    0000000c     --HOLE-- [fill = 0]
                  70016530    00000004                                                : sciclient_rm.obj (.text.Sciclient_rmIrqTranslateIaOutput)
                  70016534    0000000c     --HOLE-- [fill = 0]
                  70016540    00000004     nortos.am64x.r5f.ti-arm-clang.release.lib : SemaphoreP_nortos.obj (.text.SemaphoreP_destruct)
                  70016544    0000000c     --HOLE-- [fill = 0]
                  70016550    00000004                                               : TaskP_nortos.obj (.text.TaskP_yield)
                  70016554    0000000c     --HOLE-- [fill = 0]
                  70016560    00000004     drivers.am64x.r5f.ti-arm-clang.release.lib : udma_utils.obj (.text.Udma_defaultPhyToVirtFxn)
                  70016564    0000000c     --HOLE-- [fill = 0]
                  70016570    00000004                                                : udma_rm.obj (.text.Udma_rmFreeFreeRing)
                  70016574    0000000c     --HOLE-- [fill = 0]
                  70016580    00000004     libclang_rt.builtins.a : aeabi_div0.c.obj (.text.__aeabi_idiv0)
                  70016584    0000000c     --HOLE-- [fill = 0]
                  70016590    00000004                            : aeabi_div0.c.obj (.text.__aeabi_ldiv0)
                  70016594    0000000c     --HOLE-- [fill = 0]
                  700165a0    00000004     nortos.am64x.r5f.ti-arm-clang.release.lib : printf.obj (.text._out_null)
                  700165a4    0000000c     --HOLE-- [fill = 0]
                  700165b0    00000004     ti_dpl_config.obj (.text.putchar_)
                  700165b4    0000000c     --HOLE-- [fill = 0]

.text.hwi 
*          0    700165c0    000008d0     
                  700165c0    00000568     nortos.am64x.r5f.ti-arm-clang.release.lib : HwiP_armv7r_vim.obj (.text.hwi)
                  70016b28    00000008     --HOLE-- [fill = 0]
                  70016b30    00000270                                               : HwiP_armv7r_handlers_nortos.obj (.text.hwi)
                  70016da0    00000078                                               : HwiP_armv7r_handlers_nortos_asm.obj (.text.hwi)
                  70016e18    00000070                                               : HwiP_armv7r_asm.obj (.text.hwi)
                  70016e88    00000008     --HOLE-- [fill = 0]

.text.cache 
*          0    70016e90    000004a0     
                  70016e90    00000340     nortos.am64x.r5f.ti-arm-clang.release.lib : CacheP_armv7r_asm.obj (.text.cache)
                  700171d0    0000015c                                               : CacheP_armv7r.obj (.text.cache)
                  7001732c    00000004     --HOLE-- [fill = 0]

.text.mpu 
*          0    70017330    000002d0     
                  70017330    00000250     nortos.am64x.r5f.ti-arm-clang.release.lib : MpuP_armv7r.obj (.text.mpu)
                  70017580    00000078                                               : MpuP_armv7r_asm.obj (.text.mpu)
                  700175f8    00000008     --HOLE-- [fill = 0]

.text.boot 
*          0    70017600    00000150     
                  70017600    000000fc     nortos.am64x.r5f.ti-arm-clang.release.lib : boot_armv7r_asm.obj (.text.boot)
                  700176fc    00000004     --HOLE-- [fill = 0]
                  70017700    00000034                                               : DebugP_log.obj (.text.boot)
                  70017734    0000000c     --HOLE-- [fill = 0]
                  70017740    00000010     ti_dpl_config.obj (.text.boot)

.data      0    70017750    00002660     
                  70017750    000007ec     ti_drivers_config.obj (.data.DDRSS_phyReg)
                  70017f3c    0000069c     ti_drivers_config.obj (.data.DDRSS_ctlReg)
                  700185d8    00000564     ti_drivers_config.obj (.data.DDRSS_phyIndepReg)
                  70018b3c    000003f6     ti_drivers_config.obj (.data.DDRSS_phyRegNum)
                  70018f32    0000034e     ti_drivers_config.obj (.data.DDRSS_ctlRegNum)
                  70019280    000002b2     ti_drivers_config.obj (.data.DDRSS_phyIndepRegNum)
                  70019532    000000b8     drivers.am64x.r5f.ti-arm-clang.release.lib : sciclient_irq_rm.obj (.data.vint_usage_count_DMASS0_INTAGGR_0)
                  700195ea    00000001                                                : sciclient.obj (.data.gSecHeaderSizeWords)
                  700195eb    00000001     --HOLE-- [fill = 0]
                  700195ec    00000094                                                : mmcsd_v0.obj (.data.gMmcsdDrvObj)
                  70019680    00000094                                                : ospi_v0.obj (.data.gOspiDrvObj)
                  70019714    00000094                                                : uart_v0.obj (.data.gUartDrvObj)
                  700197a8    00000080                                                : ospi_phy.obj (.data.gOspiFlashAttackVector)
                  70019828    00000080                                                : ospi_phy.obj (.data.gReadBuf)
                  700198a8    00000070     ti_pinmux_config.obj (.data.gPinMuxMainDomainCfg)
                  70019918    00000060     drivers.am64x.r5f.ti-arm-clang.release.lib : sciclient_irq_rm.obj (.data.gRmIrInstances)
                  70019978    00000058                                                : udma_rmcfg.obj (.data.gUdmaRmSharedResPrms)
                  700199d0    00000050     ti_dpl_config.obj (.data.gMpuRegionConfig)
                  70019a20    00000050     ti_drivers_config.obj (.data.gOspiAttrs)
                  70019a70    0000004c     ti_drivers_open_close.obj (.data.gUartParams)
                  70019abc    00000048     board.am64x.r5f.ti-arm-clang.release.lib : flash_nor_xspi_device_S28HS512T.obj (.data.gFlashNorXspiDeviceDefines_S28HS512T)
                  70019b04    0000003c     ti_drivers_config.obj (.data.gMmcsdAttrs)
                  70019b40    00000030     ti_power_clock_config.obj (.data.gSocModulesClockFrequency)
                  70019b70    00000028     ti_drivers_config.obj (.data.gDdrParams)
                  70019b98    00000028     board.am64x.r5f.ti-arm-clang.release.lib : flash_nor_xspi_device_S28HS512T.obj (.data.gFlashNorXspiAttrs_S28HS512T)
                  70019bc0    00000028     drivers.am64x.r5f.ti-arm-clang.release.lib : ospi_phy.obj (.data.gPhyTuneWindowParamsGTE133)
                  70019be8    00000028                                                : ospi_phy.obj (.data.gPhyTuneWindowParamsLT133)
                  70019c10    00000020     ti_drivers_config.obj (.data.gOspiDmaRestrictRegions)
                  70019c30    00000020     drivers.am64x.r5f.ti-arm-clang.release.lib : sciclient_irq_rm.obj (.data.gRmIaInstances)
                  70019c50    00000020                                                : sciclient_soc_priv.obj (.data.gSciclientSecProxyCfg)
                  70019c70    00000020     ti_power_clock_config.obj (.data.gSocModules)
                  70019c90    0000001c     ti_drivers_config.obj (.data.gOspiUdma0Args)
                  70019cac    00000014     ti_dpl_config.obj (.data.gClockConfig)
                  70019cc0    00000014     board.am64x.r5f.ti-arm-clang.release.lib : flash_nor_xspi.obj (.data.gFlashNorXspiFxns)
                  70019cd4    00000014     drivers.am64x.r5f.ti-arm-clang.release.lib : sciclient_irq_rm.obj (.data.rom_usage_DMASS0_INTAGGR_0)
                  70019ce8    00000010     ti_board_open_close.obj (.data.gFlashConfig)
                  70019cf8    00000010     ti_drivers_config.obj (.data.gUdmaInitPrms)
                  70019d08    0000000c     nortos.am64x.r5f.ti-arm-clang.release.lib : AddrTranslateP.obj (.data.gAddrTranslateConfig)
                  70019d14    0000000c     ti_dpl_config.obj (.data.gMpuConfig)
                  70019d20    0000000c     drivers.am64x.r5f.ti-arm-clang.release.lib : ospi_dma_udma.obj (.data.gOspiDmaUdmaFxns)
                  70019d2c    00000008     ti_dpl_config.obj (.data.gCacheConfig)
                  70019d34    00000008     ti_drivers_config.obj (.data.gMmcsdConfig)
                  70019d3c    00000008     ti_drivers_open_close.obj (.data.gMmcsdParams)
                  70019d44    00000008     ti_drivers_config.obj (.data.gOspiConfig)
                  70019d4c    00000008     ti_drivers_config.obj (.data.gOspiDmaConfig)
                  70019d54    00000008     ti_pinmux_config.obj (.data.gPinMuxMcuDomainCfg)
                  70019d5c    00000008     ti_drivers_config.obj (.data.gUartAttrs)
                  70019d64    00000008     ti_drivers_config.obj (.data.gUartConfig)
                  70019d6c    00000004     libc.a : aeabi_portable.c.obj (.data.__aeabi_errno)
                  70019d70    00000004     nortos.am64x.r5f.ti-arm-clang.release.lib : CacheP_armv7r.obj (.data.gCacheL1dCacheLineSize)
                  70019d74    00000004                                               : CacheP_armv7r.obj (.data.gCacheL1pCacheLineSize)
                  70019d78    00000004                                               : DebugP_log.obj (.data.gDebugLogZone)
                  70019d7c    00000004     ti_board_open_close.obj (.data.gFlashConfigNum)
                  70019d80    00000004     ti_dpl_config.obj (.data.gHwiConfig)
                  70019d84    00000004     ti_drivers_config.obj (.data.gMmcsdConfigNum)
                  70019d88    00000004     ti_drivers_config.obj (.data.gOspiConfigNum)
                  70019d8c    00000004     ti_drivers_config.obj (.data.gOspiDmaConfigNum)
                  70019d90    00000004     ti_drivers_open_close.obj (.data.gOspiParams)
                  70019d94    00000004     drivers.am64x.r5f.ti-arm-clang.release.lib : ospi_phy.obj (.data.gPhyTuneWindowParams)
                  70019d98    00000004                                                : sciclient.obj (.data.gSciclientHandle.0)
                  70019d9c    00000004                                                : sciclient.obj (.data.gSciclientHandle.2)
                  70019da0    00000004                                                : sciclient.obj (.data.gSciclientHandle.3)
                  70019da4    00000004                                                : sciclient.obj (.data.gSciclientHandle.4)
                  70019da8    00000004                                                : sciclient.obj (.data.gSciclientHandle.5)
                  70019dac    00000004     ti_drivers_config.obj (.data.gUartConfigNum)

.rodata    0    70019e00    0002e700     
                  70019e00    0002bbcb     drivers.am64x.r5f.ti-arm-clang.release.lib : bootloader_sysfw_load.obj (.rodata.gSysFw)
                  700459cb    00000cae                                                : bootloader_sysfw_load.obj (.rodata.sciclient_set_boardcfg.boardCfgLow.1)
                  70046679    00000002                                                : bootloader_sysfw_load.obj (.rodata.sciclient_set_boardcfg.boardCfgLow)
                  7004667b    00000001     --HOLE-- [fill = 0]
                  7004667c    00000264                                                : lpddr4.obj (.rodata.CtlIntMap)
                  700468e0    00000200                                                : crc16.obj (.rodata.crc16tab)
                  70046ae0    000001a4                                                : udma_rmcfg.obj (.rodata.gUdmaRmDefBoardCfg_Pktdma)
                  70046c84    0000015d                                                : bootloader_sysfw_load.obj (.rodata.sciclient_set_boardcfg.boardCfgLow.2)
                  70046de1    0000013d                                                : ddr.obj (.rodata.str1.1)
                  70046f1e    00000002     --HOLE-- [fill = 0]
                  70046f20    00000138                                                : udma_soc.obj (.rodata.gUdmaTxMappedChRingAttributes)
                  70047058    0000012c                                                : sciclient_fmwSecureProxyMap.obj (.rodata.gSciclientMap)
                  70047184    00000116                                                : uart_v0.obj (.rodata.str1.1)
                  7004729a    00000103     nortos.am64x.r5f.ti-arm-clang.release.lib : TimerP.obj (.rodata.str1.1)
                  7004739d    00000003     --HOLE-- [fill = 0]
                  700473a0    00000101     libc.a : aeabi_ctype.S.obj (.rodata)
                  700474a1    000000d4     ti_drivers_open_close.obj (.rodata.str1.1)
                  70047575    000000c1     board.am64x.r5f.ti-arm-clang.release.lib : flash_nor_xspi.obj (.rodata.str1.1)
                  70047636    000000bc     drivers.am64x.r5f.ti-arm-clang.release.lib : ospi_dma_udma.obj (.rodata.str1.1)
                  700476f2    000000ac     nortos.am64x.r5f.ti-arm-clang.release.lib : ClockP_nortos_r5.obj (.rodata.str1.1)
                  7004779e    000000a9     drivers.am64x.r5f.ti-arm-clang.release.lib : sciclient.obj (.rodata.str1.1)
                  70047847    00000001     --HOLE-- [fill = 0]
                  70047848    0000009c                                                : udma_soc.obj (.rodata.gUdmaRxMappedChRingAttributes)
                  700478e4    00000084                                                : udma_rmcfg.obj (.rodata.gUdmaRmDefBoardCfg_Bcdma)
                  70047968    00000084                                                : udma_utils.obj (.rodata.gUdmaUtilsTrSizeTable)
                  700479ec    00000082                                                : sciclient_boardcfg.obj (.rodata.str1.1)
                  70047a6e    0000006b     nortos.am64x.r5f.ti-arm-clang.release.lib : SemaphoreP_nortos.obj (.rodata.str1.1)
                  70047ad9    0000006a     drivers.am64x.r5f.ti-arm-clang.release.lib : mmcsd_v0.obj (.rodata.str1.1)
                  70047b43    00000001     --HOLE-- [fill = 0]
                  70047b44    00000068                                                : sciclient_irq_rm.obj (.rodata.tisci_if_TIMESYNC_EVENT_INTROUTER0)
                  70047bac    00000065                                                : ospi_v0.obj (.rodata.str1.1)
                  70047c11    0000005a     nortos.am64x.r5f.ti-arm-clang.release.lib : ClockP_nortos.obj (.rodata.str1.1)
                  70047c6b    00000001     --HOLE-- [fill = 0]
                  70047c6c    00000058     drivers.am64x.r5f.ti-arm-clang.release.lib : sciclient_irq_rm.obj (.rodata.gRmIrqTree)
                  70047cc4    00000004                                                : sciclient_irq_rm.obj (.rodata.gRmIrqTreeCount)
                  70047cc8    00000050     nortos.am64x.r5f.ti-arm-clang.release.lib : printf.obj (.rodata._ftoa.pow10)
                  70047d18    0000004b     ti_drivers_config.obj (.rodata.str1.1)
                  70047d63    00000046     ti_board_open_close.obj (.rodata.str1.1)
                  70047da9    00000037     drivers.am64x.r5f.ti-arm-clang.release.lib : mmcsd_priv.obj (.rodata.str1.1)
                  70047de0    00000034                                                : sciclient_irq_rm.obj (.rodata.tisci_if_MAIN_GPIOMUX_INTROUTER0)
                  70047e14    00000030                                                : mmcsd_priv.obj (.rodata.gMonths)
                  70047e44    00000030                                                : sciclient_irq_rm.obj (.rodata.tisci_if_DMASS0_INTAGGR_0)
                  70047e74    0000002d     nortos.am64x.r5f.ti-arm-clang.release.lib : DebugP_log.obj (.rodata.str1.1)
                  70047ea1    00000029     main.obj (.rodata.str1.1)
                  70047eca    00000002     --HOLE-- [fill = 0]
                  70047ecc    00000024     drivers.am64x.r5f.ti-arm-clang.release.lib : sciclient_irq_rm.obj (.rodata.tisci_if_MCU_MCU_GPIOMUX_INTROUTER0)
                  70047ef0    00000022     libc.a : _printfi.c.obj (.rodata.str1.1)
                  70047f12    00000002     --HOLE-- [fill = 0]
                  70047f14    00000020     drivers.am64x.r5f.ti-arm-clang.release.lib : mmcsd_v0.obj (.rodata.cst32)
                  70047f34    00000020                                                : sciclient_irq_rm.obj (.rodata.tisci_if_CPTS0)
                  70047f54    0000001c                                                : sciclient_irq_rm.obj (.rodata.tisci_if_PRU_ICSSG0)
                  70047f70    00000010                                                : sciclient_irq_rm.obj (.rodata.tisci_if_CPSW0)
                  70047f80    0000001d                                                : bootloader_sysfw_load.obj (.rodata.gBoardConfigLow_debug)
                  70047f9d    00000003     --HOLE-- [fill = 0]
                  70047fa0    0000001c                                                : sciclient_irq_rm.obj (.rodata.tisci_if_PRU_ICSSG1)
                  70047fbc    00000018                                                : sciclient_soc_priv.obj (.rodata..Lswitch.table.Sciclient_getDevId)
                  70047fd4    00000018                                                : sciclient_irq_rm.obj (.rodata.tisci_if_CMP_EVENT_INTROUTER0)
                  70047fec    00000014                                                : sciclient_irq_rm.obj (.rodata.tisci_if_PCIE0)
                  70048000    00000012     nortos.am64x.r5f.ti-arm-clang.release.lib : printf.obj (.rodata.str1.1)
                  70048012    00000002     --HOLE-- [fill = 0]
                  70048014    00000004     drivers.am64x.r5f.ti-arm-clang.release.lib : sciclient_irq_rm.obj (.rodata.tisci_if_EPWM0)
                  70048018    0000000c                                                : bootloader_sysfw_load.obj (.rodata..L__const.sciclient_set_boardcfg.boardCfgPrms_pm)
                  70048024    00000004                                                : sciclient_irq_rm.obj (.rodata.tisci_if_EPWM3)
                  70048028    0000000c                                                : bootloader_sysfw_load.obj (.rodata..L__const.sciclient_set_boardcfg.boardCfgPrms_rm)
                  70048034    00000004                                                : sciclient_irq_rm.obj (.rodata.tisci_if_EPWM6)
                  70048038    0000000c                                                : bootloader_sysfw_load.obj (.rodata..L__const.sciclient_set_boardcfg.boardCfgPrms_sec)
                  70048044    00000004                                                : sciclient_irq_rm.obj (.rodata.tisci_if_GPMC0)
                  70048048    0000000c                                                : bootloader_sysfw_load.obj (.rodata..L__const.sciclient_set_boardcfg_linux.boardCfgPrms)
                  70048054    00000008                                                : sciclient_irq_rm.obj (.rodata.CMP_EVENT_INTROUTER0_outp_0_15_to_GICSS0_spi_48_63)
                  7004805c    00000008                                                : sciclient_irq_rm.obj (.rodata.CMP_EVENT_INTROUTER0_outp_16_23_to_R5FSS0_CORE0_intr_48_55)
                  70048064    00000008                                                : sciclient_irq_rm.obj (.rodata.CMP_EVENT_INTROUTER0_outp_16_23_to_R5FSS0_CORE1_intr_48_55)
                  7004806c    00000008                                                : sciclient_irq_rm.obj (.rodata.CMP_EVENT_INTROUTER0_outp_24_31_to_R5FSS1_CORE0_intr_48_55)
                  70048074    00000008                                                : sciclient_irq_rm.obj (.rodata.CMP_EVENT_INTROUTER0_outp_24_31_to_R5FSS1_CORE1_intr_48_55)
                  7004807c    00000008                                                : sciclient_irq_rm.obj (.rodata.CMP_EVENT_INTROUTER0_outp_32_39_to_DMASS0_INTAGGR_0_intaggr_levi_pend_0_7)
                  70048084    00000008                                                : sciclient_irq_rm.obj (.rodata.CPSW0_cpts_comp_0_0_to_CMP_EVENT_INTROUTER0_in_80_80)
                  7004808c    00000008                                                : sciclient_irq_rm.obj (.rodata.CPSW0_cpts_genf0_1_1_to_TIMESYNC_EVENT_INTROUTER0_in_21_21)
                  70048094    00000008                                                : sciclient_irq_rm.obj (.rodata.CPSW0_cpts_genf1_2_2_to_TIMESYNC_EVENT_INTROUTER0_in_22_22)
                  7004809c    00000008                                                : sciclient_irq_rm.obj (.rodata.CPSW0_cpts_sync_3_3_to_TIMESYNC_EVENT_INTROUTER0_in_34_34)
                  700480a4    00000008                                                : sciclient_irq_rm.obj (.rodata.CPTS0_cpts_comp_0_0_to_CMP_EVENT_INTROUTER0_in_82_82)
                  700480ac    00000008                                                : sciclient_irq_rm.obj (.rodata.CPTS0_cpts_genf0_1_1_to_TIMESYNC_EVENT_INTROUTER0_in_16_16)
                  700480b4    00000008                                                : sciclient_irq_rm.obj (.rodata.CPTS0_cpts_genf1_2_2_to_TIMESYNC_EVENT_INTROUTER0_in_17_17)
                  700480bc    00000008                                                : sciclient_irq_rm.obj (.rodata.CPTS0_cpts_genf2_3_3_to_TIMESYNC_EVENT_INTROUTER0_in_18_18)
                  700480c4    00000008                                                : sciclient_irq_rm.obj (.rodata.CPTS0_cpts_genf3_4_4_to_TIMESYNC_EVENT_INTROUTER0_in_19_19)
                  700480cc    00000008                                                : sciclient_irq_rm.obj (.rodata.CPTS0_cpts_genf4_5_5_to_TIMESYNC_EVENT_INTROUTER0_in_20_20)
                  700480d4    00000008                                                : sciclient_irq_rm.obj (.rodata.CPTS0_cpts_genf5_6_6_to_TIMESYNC_EVENT_INTROUTER0_in_24_24)
                  700480dc    00000008                                                : sciclient_irq_rm.obj (.rodata.CPTS0_cpts_sync_7_7_to_TIMESYNC_EVENT_INTROUTER0_in_35_35)
                  700480e4    00000008                                                : sciclient_irq_rm.obj (.rodata.DMASS0_INTAGGR_0_intaggr_vintr_pend_0_39_to_GICSS0_spi_64_103)
                  700480ec    00000008                                                : sciclient_irq_rm.obj (.rodata.DMASS0_INTAGGR_0_intaggr_vintr_pend_120_127_to_R5FSS1_CORE0_intr_8_15)
                  700480f4    00000008                                                : sciclient_irq_rm.obj (.rodata.DMASS0_INTAGGR_0_intaggr_vintr_pend_128_135_to_R5FSS1_CORE1_intr_8_15)
                  700480fc    00000008                                                : sciclient_irq_rm.obj (.rodata.DMASS0_INTAGGR_0_intaggr_vintr_pend_152_159_to_PRU_ICSSG0_pr1_slv_intr_16_23)
                  70048104    00000008                                                : sciclient_irq_rm.obj (.rodata.DMASS0_INTAGGR_0_intaggr_vintr_pend_160_167_to_PRU_ICSSG1_pr1_slv_intr_16_23)
                  7004810c    00000008                                                : sciclient_irq_rm.obj (.rodata.DMASS0_INTAGGR_0_intaggr_vintr_pend_168_183_to_MCU_M4FSS0_CORE0_nvic_32_47)
                  70048114    00000008                                                : sciclient_irq_rm.obj (.rodata.DMASS0_INTAGGR_0_intaggr_vintr_pend_40_71_to_R5FSS0_CORE0_intr_64_95)
                  7004811c    00000008                                                : sciclient_irq_rm.obj (.rodata.DMASS0_INTAGGR_0_intaggr_vintr_pend_40_71_to_R5FSS0_CORE1_intr_64_95)
                  70048124    00000008                                                : sciclient_irq_rm.obj (.rodata.DMASS0_INTAGGR_0_intaggr_vintr_pend_72_79_to_R5FSS0_CORE0_intr_8_15)
                  7004812c    00000008                                                : sciclient_irq_rm.obj (.rodata.DMASS0_INTAGGR_0_intaggr_vintr_pend_80_87_to_R5FSS0_CORE1_intr_8_15)
                  70048134    00000008                                                : sciclient_irq_rm.obj (.rodata.DMASS0_INTAGGR_0_intaggr_vintr_pend_88_119_to_R5FSS1_CORE0_intr_64_95)
                  7004813c    00000008                                                : sciclient_irq_rm.obj (.rodata.DMASS0_INTAGGR_0_intaggr_vintr_pend_88_119_to_R5FSS1_CORE1_intr_64_95)
                  70048144    00000008                                                : sciclient_irq_rm.obj (.rodata.EPWM0_epwm_synco_o_0_0_to_TIMESYNC_EVENT_INTROUTER0_in_39_39)
                  7004814c    00000008                                                : sciclient_irq_rm.obj (.rodata.EPWM3_epwm_synco_o_0_0_to_TIMESYNC_EVENT_INTROUTER0_in_40_40)
                  70048154    00000008                                                : sciclient_irq_rm.obj (.rodata.EPWM6_epwm_synco_o_0_0_to_TIMESYNC_EVENT_INTROUTER0_in_41_41)
                  7004815c    00000008                                                : sciclient_irq_rm.obj (.rodata.GPIO0_gpio_0_89_to_MAIN_GPIOMUX_INTROUTER0_in_0_89)
                  70048164    00000008                                                : sciclient_irq_rm.obj (.rodata.GPIO0_gpio_bank_90_98_to_MAIN_GPIOMUX_INTROUTER0_in_190_198)
                  7004816c    00000008                                                : sciclient_irq_rm.obj (.rodata.GPIO1_gpio_0_89_to_MAIN_GPIOMUX_INTROUTER0_in_90_179)
                  70048174    00000008                                                : sciclient_irq_rm.obj (.rodata.GPIO1_gpio_bank_90_98_to_MAIN_GPIOMUX_INTROUTER0_in_180_188)
                  7004817c    00000008                                                : sciclient_irq_rm.obj (.rodata.GPMC0_gpmc_sdmareq_0_0_to_DMASS0_INTAGGR_0_intaggr_levi_pend_29_29)
                  70048184    00000008                                                : sciclient_irq_rm.obj (.rodata.GTC0_gtc_push_event_0_0_to_TIMESYNC_EVENT_INTROUTER0_in_36_36)
                  7004818c    00000008                                                : sciclient_irq_rm.obj (.rodata.MAIN_GPIOMUX_INTROUTER0_outp_0_15_to_GICSS0_spi_32_47)
                  70048194    00000008                                                : sciclient_irq_rm.obj (.rodata.MAIN_GPIOMUX_INTROUTER0_outp_0_15_to_R5FSS0_CORE0_intr_32_47)
                  7004819c    00000008                                                : sciclient_irq_rm.obj (.rodata.MAIN_GPIOMUX_INTROUTER0_outp_0_15_to_R5FSS0_CORE1_intr_32_47)
                  700481a4    00000008                                                : sciclient_irq_rm.obj (.rodata.MAIN_GPIOMUX_INTROUTER0_outp_0_15_to_R5FSS1_CORE0_intr_32_47)
                  700481ac    00000008                                                : sciclient_irq_rm.obj (.rodata.MAIN_GPIOMUX_INTROUTER0_outp_0_15_to_R5FSS1_CORE1_intr_32_47)
                  700481b4    00000008                                                : sciclient_irq_rm.obj (.rodata.MAIN_GPIOMUX_INTROUTER0_outp_16_17_to_DMASS0_INTAGGR_0_intaggr_levi_pend_24_25)
                  700481bc    00000008                                                : sciclient_irq_rm.obj (.rodata.MAIN_GPIOMUX_INTROUTER0_outp_18_23_to_PRU_ICSSG0_pr1_iep0_cap_intr_req_4_9)
                  700481c4    00000008                                                : sciclient_irq_rm.obj (.rodata.MAIN_GPIOMUX_INTROUTER0_outp_18_23_to_PRU_ICSSG1_pr1_iep0_cap_intr_req_4_9)
                  700481cc    00000008                                                : sciclient_irq_rm.obj (.rodata.MAIN_GPIOMUX_INTROUTER0_outp_24_29_to_PRU_ICSSG0_pr1_iep1_cap_intr_req_10_15)
                  700481d4    00000008                                                : sciclient_irq_rm.obj (.rodata.MAIN_GPIOMUX_INTROUTER0_outp_24_29_to_PRU_ICSSG1_pr1_iep1_cap_intr_req_10_15)
                  700481dc    00000008                                                : sciclient_irq_rm.obj (.rodata.MAIN_GPIOMUX_INTROUTER0_outp_30_37_to_DMASS0_INTAGGR_0_intaggr_levi_pend_16_23)
                  700481e4    00000008                                                : sciclient_irq_rm.obj (.rodata.MAIN_GPIOMUX_INTROUTER0_outp_38_45_to_PRU_ICSSG0_pr1_slv_intr_46_53)
                  700481ec    00000008                                                : sciclient_irq_rm.obj (.rodata.MAIN_GPIOMUX_INTROUTER0_outp_46_53_to_PRU_ICSSG1_pr1_slv_intr_46_53)
                  700481f4    00000008                                                : sciclient_irq_rm.obj (.rodata.MCU_GPIO0_gpio_0_29_to_MCU_MCU_GPIOMUX_INTROUTER0_in_0_29)
                  700481fc    00000008                                                : sciclient_irq_rm.obj (.rodata.MCU_GPIO0_gpio_bank_30_31_to_MCU_MCU_GPIOMUX_INTROUTER0_in_30_31)
                  70048204    00000008                                                : sciclient_irq_rm.obj (.rodata.MCU_MCU_GPIOMUX_INTROUTER0_outp_0_3_to_GICSS0_spi_104_107)
                  7004820c    00000008                                                : sciclient_irq_rm.obj (.rodata.MCU_MCU_GPIOMUX_INTROUTER0_outp_0_3_to_R5FSS0_CORE0_intr_104_107)
                  70048214    00000008                                                : sciclient_irq_rm.obj (.rodata.MCU_MCU_GPIOMUX_INTROUTER0_outp_0_3_to_R5FSS0_CORE1_intr_104_107)
                  7004821c    00000008                                                : sciclient_irq_rm.obj (.rodata.MCU_MCU_GPIOMUX_INTROUTER0_outp_0_3_to_R5FSS1_CORE0_intr_104_107)
                  70048224    00000008                                                : sciclient_irq_rm.obj (.rodata.MCU_MCU_GPIOMUX_INTROUTER0_outp_0_3_to_R5FSS1_CORE1_intr_104_107)
                  7004822c    00000008                                                : sciclient_irq_rm.obj (.rodata.MCU_MCU_GPIOMUX_INTROUTER0_outp_4_7_to_MCU_M4FSS0_CORE0_nvic_0_3)
                  70048234    00000008                                                : sciclient_irq_rm.obj (.rodata.MCU_MCU_GPIOMUX_INTROUTER0_outp_8_11_to_MCU_ESM0_esm_pls_event0_88_91)
                  7004823c    00000008                                                : sciclient_irq_rm.obj (.rodata.MCU_MCU_GPIOMUX_INTROUTER0_outp_8_11_to_MCU_ESM0_esm_pls_event1_92_95)
                  70048244    00000008                                                : sciclient_irq_rm.obj (.rodata.MCU_MCU_GPIOMUX_INTROUTER0_outp_8_11_to_MCU_ESM0_esm_pls_event2_96_99)
                  7004824c    00000008                                                : sciclient_irq_rm.obj (.rodata.PCIE0_pcie_cpts_comp_0_0_to_CMP_EVENT_INTROUTER0_in_81_81)
                  70048254    00000008                                                : sciclient_irq_rm.obj (.rodata.PCIE0_pcie_cpts_genf0_1_1_to_TIMESYNC_EVENT_INTROUTER0_in_23_23)
                  7004825c    00000008                                                : sciclient_irq_rm.obj (.rodata.PCIE0_pcie_cpts_hw1_push_2_2_to_TIMESYNC_EVENT_INTROUTER0_in_37_37)
                  70048264    00000008                                                : sciclient_irq_rm.obj (.rodata.PCIE0_pcie_cpts_sync_3_3_to_TIMESYNC_EVENT_INTROUTER0_in_33_33)
                  7004826c    00000008                                                : sciclient_irq_rm.obj (.rodata.PCIE0_pcie_ptm_valid_pulse_4_4_to_TIMESYNC_EVENT_INTROUTER0_in_38_38)
                  70048274    00000008                                                : sciclient_irq_rm.obj (.rodata.PRU_ICSSG0_pr1_edc0_sync0_out_0_0_to_TIMESYNC_EVENT_INTROUTER0_in_25_25)
                  7004827c    00000008                                                : sciclient_irq_rm.obj (.rodata.PRU_ICSSG0_pr1_edc0_sync1_out_1_1_to_TIMESYNC_EVENT_INTROUTER0_in_26_26)
                  70048284    00000008                                                : sciclient_irq_rm.obj (.rodata.PRU_ICSSG0_pr1_edc1_sync0_out_2_2_to_TIMESYNC_EVENT_INTROUTER0_in_27_27)
                  7004828c    00000008                                                : sciclient_irq_rm.obj (.rodata.PRU_ICSSG0_pr1_edc1_sync1_out_3_3_to_TIMESYNC_EVENT_INTROUTER0_in_28_28)
                  70048294    00000008                                                : sciclient_irq_rm.obj (.rodata.PRU_ICSSG0_pr1_host_intr_req_4_11_to_CMP_EVENT_INTROUTER0_in_0_7)
                  7004829c    00000008                                                : sciclient_irq_rm.obj (.rodata.PRU_ICSSG0_pr1_iep0_cmp_intr_req_12_27_to_CMP_EVENT_INTROUTER0_in_16_31)
                  700482a4    00000008                                                : sciclient_irq_rm.obj (.rodata.PRU_ICSSG0_pr1_iep1_cmp_intr_req_28_43_to_CMP_EVENT_INTROUTER0_in_32_47)
                  700482ac    00000008                                                : sciclient_irq_rm.obj (.rodata.PRU_ICSSG1_pr1_edc0_sync0_out_0_0_to_TIMESYNC_EVENT_INTROUTER0_in_29_29)
                  700482b4    00000008                                                : sciclient_irq_rm.obj (.rodata.PRU_ICSSG1_pr1_edc0_sync1_out_1_1_to_TIMESYNC_EVENT_INTROUTER0_in_30_30)
                  700482bc    00000008                                                : sciclient_irq_rm.obj (.rodata.PRU_ICSSG1_pr1_edc1_sync0_out_2_2_to_TIMESYNC_EVENT_INTROUTER0_in_31_31)
                  700482c4    00000008                                                : sciclient_irq_rm.obj (.rodata.PRU_ICSSG1_pr1_edc1_sync1_out_3_3_to_TIMESYNC_EVENT_INTROUTER0_in_32_32)
                  700482cc    00000008                                                : sciclient_irq_rm.obj (.rodata.PRU_ICSSG1_pr1_host_intr_req_4_11_to_CMP_EVENT_INTROUTER0_in_8_15)
                  700482d4    00000008                                                : sciclient_irq_rm.obj (.rodata.PRU_ICSSG1_pr1_iep0_cmp_intr_req_12_27_to_CMP_EVENT_INTROUTER0_in_48_63)
                  700482dc    00000008                                                : sciclient_irq_rm.obj (.rodata.PRU_ICSSG1_pr1_iep1_cmp_intr_req_28_43_to_CMP_EVENT_INTROUTER0_in_64_79)
                  700482e4    00000008                                                : sciclient_irq_rm.obj (.rodata.TIMER0_timer_pwm_0_0_to_TIMESYNC_EVENT_INTROUTER0_in_0_0)
                  700482ec    00000008                                                : sciclient_irq_rm.obj (.rodata.TIMER1_timer_pwm_0_0_to_TIMESYNC_EVENT_INTROUTER0_in_1_1)
                  700482f4    00000008                                                : sciclient_irq_rm.obj (.rodata.TIMER2_timer_pwm_0_0_to_TIMESYNC_EVENT_INTROUTER0_in_2_2)
                  700482fc    00000008                                                : sciclient_irq_rm.obj (.rodata.TIMER3_timer_pwm_0_0_to_TIMESYNC_EVENT_INTROUTER0_in_3_3)
                  70048304    00000008                                                : sciclient_irq_rm.obj (.rodata.TIMESYNC_EVENT_INTROUTER0_outl_0_7_to_DMASS0_INTAGGR_0_intaggr_levi_pend_8_15)
                  7004830c    00000008                                                : sciclient_irq_rm.obj (.rodata.TIMESYNC_EVENT_INTROUTER0_outl_10_10_to_PRU_ICSSG0_pr1_edc1_latch0_in_2_2)
                  70048314    00000008                                                : sciclient_irq_rm.obj (.rodata.TIMESYNC_EVENT_INTROUTER0_outl_11_11_to_PRU_ICSSG0_pr1_edc1_latch1_in_3_3)
                  7004831c    00000008                                                : sciclient_irq_rm.obj (.rodata.TIMESYNC_EVENT_INTROUTER0_outl_12_12_to_PRU_ICSSG1_pr1_edc0_latch0_in_0_0)
                  70048324    00000008                                                : sciclient_irq_rm.obj (.rodata.TIMESYNC_EVENT_INTROUTER0_outl_13_13_to_PRU_ICSSG1_pr1_edc0_latch1_in_1_1)
                  7004832c    00000008                                                : sciclient_irq_rm.obj (.rodata.TIMESYNC_EVENT_INTROUTER0_outl_14_14_to_PRU_ICSSG1_pr1_edc1_latch0_in_2_2)
                  70048334    00000008                                                : sciclient_irq_rm.obj (.rodata.TIMESYNC_EVENT_INTROUTER0_outl_15_15_to_PRU_ICSSG1_pr1_edc1_latch1_in_3_3)
                  7004833c    00000008                                                : sciclient_irq_rm.obj (.rodata.TIMESYNC_EVENT_INTROUTER0_outl_16_16_to_CPTS0_cpts_hw1_push_0_0)
                  70048344    00000008                                                : sciclient_irq_rm.obj (.rodata.TIMESYNC_EVENT_INTROUTER0_outl_17_17_to_CPTS0_cpts_hw2_push_1_1)
                  7004834c    00000008                                                : sciclient_irq_rm.obj (.rodata.TIMESYNC_EVENT_INTROUTER0_outl_18_18_to_CPTS0_cpts_hw3_push_2_2)
                  70048354    00000008                                                : sciclient_irq_rm.obj (.rodata.TIMESYNC_EVENT_INTROUTER0_outl_19_19_to_CPTS0_cpts_hw4_push_3_3)
                  7004835c    00000008                                                : sciclient_irq_rm.obj (.rodata.TIMESYNC_EVENT_INTROUTER0_outl_20_20_to_CPTS0_cpts_hw5_push_4_4)
                  70048364    00000008                                                : sciclient_irq_rm.obj (.rodata.TIMESYNC_EVENT_INTROUTER0_outl_21_21_to_CPTS0_cpts_hw6_push_5_5)
                  7004836c    00000008                                                : sciclient_irq_rm.obj (.rodata.TIMESYNC_EVENT_INTROUTER0_outl_22_22_to_CPTS0_cpts_hw7_push_6_6)
                  70048374    00000008                                                : sciclient_irq_rm.obj (.rodata.TIMESYNC_EVENT_INTROUTER0_outl_23_23_to_CPTS0_cpts_hw8_push_7_7)
                  7004837c    00000008                                                : sciclient_irq_rm.obj (.rodata.TIMESYNC_EVENT_INTROUTER0_outl_29_29_to_PCIE0_pcie_cpts_hw2_push_0_0)
                  70048384    00000008                                                : sciclient_irq_rm.obj (.rodata.TIMESYNC_EVENT_INTROUTER0_outl_30_30_to_CPSW0_cpts_hw1_push_0_0)
                  7004838c    00000008                                                : sciclient_irq_rm.obj (.rodata.TIMESYNC_EVENT_INTROUTER0_outl_31_31_to_CPSW0_cpts_hw2_push_1_1)
                  70048394    00000008                                                : sciclient_irq_rm.obj (.rodata.TIMESYNC_EVENT_INTROUTER0_outl_32_32_to_CPSW0_cpts_hw3_push_2_2)
                  7004839c    00000008                                                : sciclient_irq_rm.obj (.rodata.TIMESYNC_EVENT_INTROUTER0_outl_33_33_to_CPSW0_cpts_hw4_push_3_3)
                  700483a4    00000008                                                : sciclient_irq_rm.obj (.rodata.TIMESYNC_EVENT_INTROUTER0_outl_34_34_to_CPSW0_cpts_hw5_push_4_4)
                  700483ac    00000008                                                : sciclient_irq_rm.obj (.rodata.TIMESYNC_EVENT_INTROUTER0_outl_35_35_to_CPSW0_cpts_hw6_push_5_5)
                  700483b4    00000008                                                : sciclient_irq_rm.obj (.rodata.TIMESYNC_EVENT_INTROUTER0_outl_36_36_to_CPSW0_cpts_hw7_push_6_6)
                  700483bc    00000008                                                : sciclient_irq_rm.obj (.rodata.TIMESYNC_EVENT_INTROUTER0_outl_37_37_to_CPSW0_cpts_hw8_push_7_7)
                  700483c4    00000008                                                : sciclient_irq_rm.obj (.rodata.TIMESYNC_EVENT_INTROUTER0_outl_8_8_to_PRU_ICSSG0_pr1_edc0_latch0_in_0_0)
                  700483cc    00000008                                                : sciclient_irq_rm.obj (.rodata.TIMESYNC_EVENT_INTROUTER0_outl_9_9_to_PRU_ICSSG0_pr1_edc0_latch1_in_1_1)
                  700483d4    00000008                                                : sciclient_irq_rm.obj (.rodata.tisci_if_GPIO0)
                  700483dc    00000008                                                : sciclient_irq_rm.obj (.rodata.tisci_if_GPIO1)
                  700483e4    00000008                                                : sciclient_irq_rm.obj (.rodata.tisci_if_MCU_GPIO0)
                  700483ec    00000008                                                : sciclient_irq_rm.obj (.rodata.tisci_irq_CMP_EVENT_INTROUTER0)
                  700483f4    00000008                                                : sciclient_irq_rm.obj (.rodata.tisci_irq_CPSW0)
                  700483fc    00000008                                                : sciclient_irq_rm.obj (.rodata.tisci_irq_CPTS0)
                  70048404    00000008                                                : sciclient_irq_rm.obj (.rodata.tisci_irq_DMASS0_INTAGGR_0)
                  7004840c    00000008                                                : sciclient_irq_rm.obj (.rodata.tisci_irq_EPWM0)
                  70048414    00000008                                                : sciclient_irq_rm.obj (.rodata.tisci_irq_EPWM3)
                  7004841c    00000008                                                : sciclient_irq_rm.obj (.rodata.tisci_irq_EPWM6)
                  70048424    00000008                                                : sciclient_irq_rm.obj (.rodata.tisci_irq_GPIO0)
                  7004842c    00000008                                                : sciclient_irq_rm.obj (.rodata.tisci_irq_GPIO1)
                  70048434    00000008                                                : sciclient_irq_rm.obj (.rodata.tisci_irq_GPMC0)
                  7004843c    00000008                                                : sciclient_irq_rm.obj (.rodata.tisci_irq_GTC0)
                  70048444    00000008                                                : sciclient_irq_rm.obj (.rodata.tisci_irq_MAIN_GPIOMUX_INTROUTER0)
                  7004844c    00000008                                                : sciclient_irq_rm.obj (.rodata.tisci_irq_MCU_GPIO0)
                  70048454    00000008                                                : sciclient_irq_rm.obj (.rodata.tisci_irq_MCU_MCU_GPIOMUX_INTROUTER0)
                  7004845c    00000008                                                : sciclient_irq_rm.obj (.rodata.tisci_irq_PCIE0)
                  70048464    00000008                                                : sciclient_irq_rm.obj (.rodata.tisci_irq_PRU_ICSSG0)
                  7004846c    00000008                                                : sciclient_irq_rm.obj (.rodata.tisci_irq_PRU_ICSSG1)
                  70048474    00000008                                                : sciclient_irq_rm.obj (.rodata.tisci_irq_TIMER0)
                  7004847c    00000008                                                : sciclient_irq_rm.obj (.rodata.tisci_irq_TIMER1)
                  70048484    00000008                                                : sciclient_irq_rm.obj (.rodata.tisci_irq_TIMER2)
                  7004848c    00000008                                                : sciclient_irq_rm.obj (.rodata.tisci_irq_TIMER3)
                  70048494    00000008                                                : sciclient_irq_rm.obj (.rodata.tisci_irq_TIMESYNC_EVENT_INTROUTER0)
                  7004849c    00000004                                                : sciclient_irq_rm.obj (.rodata.tisci_if_GTC0)
                  700484a0    00000004                                                : sciclient_irq_rm.obj (.rodata.tisci_if_TIMER0)
                  700484a4    00000004                                                : sciclient_irq_rm.obj (.rodata.tisci_if_TIMER1)
                  700484a8    00000004                                                : sciclient_irq_rm.obj (.rodata.tisci_if_TIMER2)
                  700484ac    00000004                                                : sciclient_irq_rm.obj (.rodata.tisci_if_TIMER3)
                  700484b0    00000050     --HOLE-- [fill = 0]

.bss       0    70068000    0000a800     UNINITIALIZED
                  70068000    00008000     main.obj (.bss)
                  70070000    00001008     (.common:gHwiCtrl)
                  70071008    000009ec     (.common:gUdmaDrvObj)
                  700719f4    00000004     drivers.am64x.r5f.ti-arm-clang.release.lib : bootloader_xmodem.obj (.bss.gUartHandle)
                  700719f8    00000390     ti_drivers_config.obj (.bss.gMmcsdObjects)
                  70071d88    0000025c     ti_drivers_config.obj (.bss.gUartObjects)
                  70071fe4    00000258     ti_drivers_config.obj (.bss.gOspiUdmaBlkCopyChObj)
                  7007223c    00000004     (.common:gFlashHandle)
                  70072240    00000038     (.common:gClockCtrl)
                  70072278    00000004     (.common:gMmcsdHandle)
                  7007227c    00000004     (.common:gOspiHandle)
                  70072280    00000200     (.common:gMmcsdDataBuf0)
                  70072480    00000174     ti_drivers_config.obj (.bss.gOspiObjects)
                  700725f4    0000000c     (.common:gADMA2Desc)
                  70072600    00000100     ti_drivers_config.obj (.bss.gOspiUdmaBlkCopyCh0TrpdMem)
                  70072700    00000080     ti_drivers_config.obj (.bss.gOspiUdmaBlkCopyCh0RingMem)
                  70072780    00000028     drivers.am64x.r5f.ti-arm-clang.release.lib : sciclient_rm_irq.obj (.bss.gPstack)
                  700727a8    00000028     (.common:gEmmcData0)
                  700727d0    00000010                                                : ddr.obj (.bss.gLpddrCfg)
                  700727e0    00000010                                                : ddr.obj (.bss.gLpddrPd)
                  700727f0    0000000c     (.common:gFlashObject_S28HS512T)
                  700727fc    00000004     (.common:gUartHandle)

.sysmem    0    70072800    00008000     UNINITIALIZED
                  70072800    00000010     libc.a : memory.c.obj (.sysmem)
                  70072810    00007ff0     --HOLE--

.stack     0    7007a800    00004000     UNINITIALIZED
                  7007a800    00000004     nortos.am64x.r5f.ti-arm-clang.release.lib : boot_armv7r_asm.obj (.stack)
                  7007a804    00003ffc     --HOLE--

.irqstack 
*          0    7007e800    00001000     UNINITIALIZED
                  7007e800    00001000     --HOLE--

.fiqstack 
*          0    7007f800    00000100     UNINITIALIZED
                  7007f800    00000100     --HOLE--

.svcstack 
*          0    7007f900    00000100     UNINITIALIZED
                  7007f900    00000100     --HOLE--

.abortstack 
*          0    7007fa00    00000100     UNINITIALIZED
                  7007fa00    00000100     --HOLE--

.undefinedstack 
*          0    7007fb00    00000100     UNINITIALIZED
                  7007fb00    00000100     --HOLE--

.bss.filebuf 
*          0    80000000    00800000     NOLOAD SECTION
                  80000000    00800000     main.obj (.bss.filebuf)

__llvm_prf_cnts 
*          0    70068000    00000000     UNINITIALIZED

MODULE SUMMARY

       Module                                   code    ro data   rw data
       ------                                   ----    -------   -------
    obj/release/
       main.obj                                 216     41        8421376
       ti_drivers_config.obj                    136     75        13374  
       ti_drivers_open_close.obj                368     212       652    
       ti_board_open_close.obj                  152     70        36     
       ti_power_clock_config.obj                152     0         80     
       ti_dpl_config.obj                        104     0         124    
       ti_pinmux_config.obj                     40      0         120    
    +--+----------------------------------------+-------+---------+---------+
       Total:                                   1168    398       8435762
                                                                         
    /home/gtbldadm/nightlybuilds/repo_manifests/scripts/jenkins/mcu_plus_sdk_am64x_08_01_00_36/source/board/lib/board.am64x.r5f.ti-arm-clang.release.lib
       flash_nor_xspi.obj                       2868    193       20     
       flash.obj                                476     0         0      
       flash_nor_xspi_device_S28HS512T.obj      0       0         112    
    +--+----------------------------------------+-------+---------+---------+
       Total:                                   3344    193       132    
                                                                         
    /home/gtbldadm/nightlybuilds/repo_manifests/scripts/jenkins/mcu_plus_sdk_am64x_08_01_00_36/source/drivers/lib/drivers.am64x.r5f.ti-arm-clang.release.lib
       bootloader_sysfw_load.obj                272     182821    0      
       mmcsd_v0.obj                             11556   138       160    
       uart_v0.obj                              6348    278       148    
       udma_rm.obj                              6384    0         0      
       udma_ch.obj                              5712    0         0      
       ospi_phy.obj                             4616    0         340    
       sciclient_rm_irq.obj                     4816    0         40     
       ospi_v0.obj                              3812    101       148    
       sciclient.obj                            2556    169       21     
       csl_bcdma.obj                            2620    0         0      
       udma_event.obj                           2040    0         0      
       bootloader_uniflash.obj                  1996    0         0      
       sciclient_irq_rm.obj                     0       1612      332    
       lpddr4.obj                               1280    612       0      
       sciclient_pm.obj                         1764    0         0      
       xmodem.obj                               1556    0         0      
       ospi_dma_udma.obj                        1172    188       12     
       udma_soc.obj                             860     468       0      
       udma_ring_common.obj                     1268    0         0      
       udma_ring_lcdma.obj                      1148    0         0      
       sciclient_rm.obj                         1044    0         0      
       csl_lcdma_ringacc.obj                    1024    0         0      
       mmcsd_priv.obj                           884     103       0      
       ddr.obj                                  628     317       32     
       sciclient_boardcfg.obj                   784     130       0      
       udma_rmcfg_common.obj                    848     0         0      
       soc.obj                                  824     0         0      
       udma_rmcfg.obj                           108     552       88     
       csl_pktdma.obj                           720     0         0      
       bootloader_mmcsd_raw.obj                 696     0         0      
       crc16.obj                                64      512       0      
       udma_utils.obj                           352     132       0      
       udma_flow.obj                            448     0         0      
       bootloader_xmodem.obj                    352     0         4      
       sciclient_fmwSecureProxyMap.obj          0       300       0      
       pinmux.obj                               248     0         0      
       csl_intaggr.obj                          244     0         0      
       udma.obj                                 240     0         0      
       ospi_dma.obj                             232     0         0      
       sciclient_soc_priv.obj                   168     24        32     
       csl_sec_proxy.obj                        20      0         0      
    +--+----------------------------------------+-------+---------+---------+
       Total:                                   71704   188457    1357   
                                                                         
    /home/gtbldadm/nightlybuilds/repo_manifests/scripts/jenkins/mcu_plus_sdk_am64x_08_01_00_36/source/kernel/nortos/lib/nortos.am64x.r5f.ti-arm-clang.release.lib
       HwiP_armv7r_vim.obj                      1384    0         4104   
       printf.obj                               5364    98        0      
       ClockP_nortos.obj                        976     90        56     
       TimerP.obj                               704     259       0      
       CacheP_armv7r_asm.obj                    832     0         0      
       SemaphoreP_nortos.obj                    528     107       0      
       HwiP_armv7r_handlers_nortos.obj          624     0         0      
       MpuP_armv7r.obj                          592     0         0      
       ClockP_nortos_r5.obj                     368     172       0      
       CacheP_armv7r.obj                        348     0         8      
       DebugP_log.obj                           236     45        4      
       boot_armv7r_asm.obj                      252     0         0      
       AddrTranslateP.obj                       152     0         12     
       HwiP_armv7r_handlers_nortos_asm.obj      120     0         0      
       MpuP_armv7r_asm.obj                      120     0         0      
       HwiP_armv7r_asm.obj                      112     0         0      
       DebugP_nortos.obj                        96      0         0      
       HwiP_armv7r_vectors_nortos_sbl_asm.obj   64      0         0      
       boot_armv7r.obj                          36      0         0      
       TaskP_nortos.obj                         4       0         0      
    +--+----------------------------------------+-------+---------+---------+
       Total:                                   12912   771       4184   
                                                                         
    /home/gtbldadm/ti/ccs1100/ccs/tools/compiler/ti-cgt-armllvm_1.3.0.LTS/lib/armv7r-ti-none-eabihf/c/libc.a
       _printfi.c.obj                           3140    34        0      
       aeabi_ctype.S.obj                        0       257       0      
       snprintf.c.obj                           252     0         0      
       atoi.c.obj                               108     0         0      
       autoinit.c.obj                           92      0         0      
       memccpy.c.obj                            72      0         0      
       wcslen.c.obj                             32      0         0      
       aeabi_portable.c.obj                     12      0         4      
       exit.c.obj                               8       0         0      
    +--+----------------------------------------+-------+---------+---------+
       Total:                                   3716    291       4      
                                                                         
    /home/gtbldadm/ti/ccs1100/ccs/tools/compiler/ti-cgt-armllvm_1.3.0.LTS/lib/armv7r-ti-none-eabihf/c/libsysbm.a
       memcpy32.S.obj                           28      0         0      
       memset32.S.obj                           24      0         0      
    +--+----------------------------------------+-------+---------+---------+
       Total:                                   52      0         0      
                                                                         
    /home/gtbldadm/ti/ccs1100/ccs/tools/compiler/ti-cgt-armllvm_1.3.0.LTS/lib/clang/12.0.1/lib/armv7r-ti-none-eabihf/libclang_rt.builtins.a
       udivsi3.S.obj                            464     0         0      
       udivmoddi4.S.obj                         280     0         0      
       aeabi_uldivmod.S.obj                     36      0         0      
       aeabi_memset.S.obj                       28      0         0      
       aeabi_div0.c.obj                         8       0         0      
       aeabi_memcpy.S.obj                       4       0         0      
    +--+----------------------------------------+-------+---------+---------+
       Total:                                   820     0         0      
                                                                         
       Heap:                                    0       0         32768  
       Stack:                                   0       0         16384  
    +--+----------------------------------------+-------+---------+---------+
       Grand Total:                             93716   190110    8490591


GLOBAL SYMBOLS: SORTED ALPHABETICALLY BY Name 

address   name                                                                          
-------   ----                                                                          
70011d60  AddrTranslateP_getLocalAddr                                                   
700164d0  Board_driversOpen                                                             
70011f40  Board_flashOpen                                                               
7000d560  Bootloader_MmcsdRaw_readFromOffset                                            
7000c720  Bootloader_MmcsdRaw_writeToOffset                                             
7000e100  Bootloader_socLoadSysFw                                                       
70008810  Bootloader_uniflashProcessFlashCommands                                       
70014ea0  Bootloader_xmodemReceive                                                      
70014ef0  Bootloader_xmodemTransmit                                                     
70004168  C$$EXIT                                                                       
70048054  CMP_EVENT_INTROUTER0_outp_0_15_to_GICSS0_spi_48_63                            
7004805c  CMP_EVENT_INTROUTER0_outp_16_23_to_R5FSS0_CORE0_intr_48_55                    
70048064  CMP_EVENT_INTROUTER0_outp_16_23_to_R5FSS0_CORE1_intr_48_55                    
7004806c  CMP_EVENT_INTROUTER0_outp_24_31_to_R5FSS1_CORE0_intr_48_55                    
70048074  CMP_EVENT_INTROUTER0_outp_24_31_to_R5FSS1_CORE1_intr_48_55                    
7004807c  CMP_EVENT_INTROUTER0_outp_32_39_to_DMASS0_INTAGGR_0_intaggr_levi_pend_0_7     
70048084  CPSW0_cpts_comp_0_0_to_CMP_EVENT_INTROUTER0_in_80_80                          
7004808c  CPSW0_cpts_genf0_1_1_to_TIMESYNC_EVENT_INTROUTER0_in_21_21                    
70048094  CPSW0_cpts_genf1_2_2_to_TIMESYNC_EVENT_INTROUTER0_in_22_22                    
7004809c  CPSW0_cpts_sync_3_3_to_TIMESYNC_EVENT_INTROUTER0_in_34_34                     
700480a4  CPTS0_cpts_comp_0_0_to_CMP_EVENT_INTROUTER0_in_82_82                          
700480ac  CPTS0_cpts_genf0_1_1_to_TIMESYNC_EVENT_INTROUTER0_in_16_16                    
700480b4  CPTS0_cpts_genf1_2_2_to_TIMESYNC_EVENT_INTROUTER0_in_17_17                    
700480bc  CPTS0_cpts_genf2_3_3_to_TIMESYNC_EVENT_INTROUTER0_in_18_18                    
700480c4  CPTS0_cpts_genf3_4_4_to_TIMESYNC_EVENT_INTROUTER0_in_19_19                    
700480cc  CPTS0_cpts_genf4_5_5_to_TIMESYNC_EVENT_INTROUTER0_in_20_20                    
700480d4  CPTS0_cpts_genf5_6_6_to_TIMESYNC_EVENT_INTROUTER0_in_24_24                    
700480dc  CPTS0_cpts_sync_7_7_to_TIMESYNC_EVENT_INTROUTER0_in_35_35                     
70005200  CSL_bcdmaChanOp                                                               
700139a0  CSL_bcdmaGetCfg                                                               
70015630  CSL_bcdmaGetChanPeerReg                                                       
70016060  CSL_bcdmaGetRxRT                                                              
70016080  CSL_bcdmaGetTxRT                                                              
70015730  CSL_bcdmaSetChanPeerReg                                                       
700160a0  CSL_bcdmaSetRxRT                                                              
700160c0  CSL_bcdmaSetTxRT                                                              
700158f0  CSL_bcdmaTeardownRxChan                                                       
70015920  CSL_bcdmaTeardownTxChan                                                       
700141b0  CSL_intaggrClrIntr                                                            
70015430  CSL_intaggrGetCfg                                                             
700143f0  CSL_intaggrIsIntrPending                                                      
7000ee70  CSL_lcdma_ringaccDequeue                                                      
70016300  CSL_lcdma_ringaccGetForwardRingOcc                                            
70016250  CSL_lcdma_ringaccGetReverseRingOcc                                            
70016160  CSL_lcdma_ringaccInitRingObj                                                  
70016180  CSL_lcdma_ringaccPop64                                                        
70015a10  CSL_lcdma_ringaccPush64                                                       
70014030  CSL_pktdmaGetCfg                                                              
70015aa0  CSL_pktdmaGetChanPeerReg                                                      
70015770  CSL_pktdmaGetRxRT                                                             
700157b0  CSL_pktdmaGetTxRT                                                             
70015ad0  CSL_pktdmaSetChanPeerReg                                                      
70015b00  CSL_pktdmaSetRxRT                                                             
70015b30  CSL_pktdmaSetTxRT                                                             
70016460  CSL_pktdmaTeardownRxChan                                                      
70016470  CSL_pktdmaTeardownTxChan                                                      
70016320  CSL_secProxyGetDataAddr                                                       
700171a0  CacheP_configForceWrThru                                                      
70017270  CacheP_disable                                                                
70016e90  CacheP_disableL1d                                                             
70016eb8  CacheP_disableL1p                                                             
700172c0  CacheP_enable                                                                 
70016ed0  CacheP_enableL1d                                                              
70016ee8  CacheP_enableL1p                                                              
70017194  CacheP_getCacheLevelInfo                                                      
7001715c  CacheP_getEnabled                                                             
700171d0  CacheP_init                                                                   
700172f0  CacheP_inv                                                                    
70016f00  CacheP_invL1d                                                                 
70016f74  CacheP_invL1dAll                                                              
70016f38  CacheP_invL1p                                                                 
70016f7c  CacheP_invL1pAll                                                              
700171c0  CacheP_setDLFO                                                                
70016f84  CacheP_wb                                                                     
70016ffc  CacheP_wbAll                                                                  
70016fc0  CacheP_wbInv                                                                  
700170a4  CacheP_wbInvAll                                                               
700170bc  CacheP_wbInvAllAsm                                                            
70016380  ClockP_Params_init                                                            
70013a10  ClockP_construct                                                              
70014210  ClockP_destruct                                                               
70016390  ClockP_getTicks                                                               
70013ee0  ClockP_getTimeUsec                                                            
700164e0  ClockP_getTimerCount                                                          
7000cd00  ClockP_init                                                                   
700163a0  ClockP_isActive                                                               
70014f40  ClockP_start                                                                  
70013240  ClockP_stop                                                                   
700164f0  ClockP_timerClearOverflowInt                                                  
700111d0  ClockP_timerTickIsr                                                           
70015470  ClockP_usleep                                                                 
70017f3c  DDRSS_ctlReg                                                                  
70018f32  DDRSS_ctlRegNum                                                               
700185d8  DDRSS_phyIndepReg                                                             
70019280  DDRSS_phyIndepRegNum                                                          
70017750  DDRSS_phyReg                                                                  
70018b3c  DDRSS_phyRegNum                                                               
7000a7b0  DDR_init                                                                      
700480e4  DMASS0_INTAGGR_0_intaggr_vintr_pend_0_39_to_GICSS0_spi_64_103                 
700480ec  DMASS0_INTAGGR_0_intaggr_vintr_pend_120_127_to_R5FSS1_CORE0_intr_8_15         
700480f4  DMASS0_INTAGGR_0_intaggr_vintr_pend_128_135_to_R5FSS1_CORE1_intr_8_15         
700480fc  DMASS0_INTAGGR_0_intaggr_vintr_pend_152_159_to_PRU_ICSSG0_pr1_slv_intr_16_23  
70048104  DMASS0_INTAGGR_0_intaggr_vintr_pend_160_167_to_PRU_ICSSG1_pr1_slv_intr_16_23  
7004810c  DMASS0_INTAGGR_0_intaggr_vintr_pend_168_183_to_MCU_M4FSS0_CORE0_nvic_32_47    
70048114  DMASS0_INTAGGR_0_intaggr_vintr_pend_40_71_to_R5FSS0_CORE0_intr_64_95          
7004811c  DMASS0_INTAGGR_0_intaggr_vintr_pend_40_71_to_R5FSS0_CORE1_intr_64_95          
70048124  DMASS0_INTAGGR_0_intaggr_vintr_pend_72_79_to_R5FSS0_CORE0_intr_8_15           
7004812c  DMASS0_INTAGGR_0_intaggr_vintr_pend_80_87_to_R5FSS0_CORE1_intr_8_15           
70048134  DMASS0_INTAGGR_0_intaggr_vintr_pend_88_119_to_R5FSS1_CORE0_intr_64_95         
7004813c  DMASS0_INTAGGR_0_intaggr_vintr_pend_88_119_to_R5FSS1_CORE1_intr_64_95         
70015950  DebugP_logZoneEnable                                                          
70014800  Dpl_init                                                                      
700132c0  Drivers_mmcsdOpen                                                             
70016340  Drivers_open                                                                  
70013340  Drivers_ospiOpen                                                              
700133c0  Drivers_uartOpen                                                              
70048144  EPWM0_epwm_synco_o_0_0_to_TIMESYNC_EVENT_INTROUTER0_in_39_39                  
7004814c  EPWM3_epwm_synco_o_0_0_to_TIMESYNC_EVENT_INTROUTER0_in_40_40                  
70048154  EPWM6_epwm_synco_o_0_0_to_TIMESYNC_EVENT_INTROUTER0_in_41_41                  
70015f50  Flash_close                                                                   
70015b60  Flash_eraseBlk                                                                
70015b90  Flash_getAttrs                                                                
70015bc0  Flash_getHandle                                                               
700161a0  Flash_getPhyTuningOffset                                                      
70012cc0  Flash_offsetToBlkPage                                                         
70014860  Flash_open                                                                    
70015bf0  Flash_read                                                                    
70015c20  Flash_write                                                                   
7004815c  GPIO0_gpio_0_89_to_MAIN_GPIOMUX_INTROUTER0_in_0_89                            
70048164  GPIO0_gpio_bank_90_98_to_MAIN_GPIOMUX_INTROUTER0_in_190_198                   
7004816c  GPIO1_gpio_0_89_to_MAIN_GPIOMUX_INTROUTER0_in_90_179                          
70048174  GPIO1_gpio_bank_90_98_to_MAIN_GPIOMUX_INTROUTER0_in_180_188                   
7004817c  GPMC0_gpmc_sdmareq_0_0_to_DMASS0_INTAGGR_0_intaggr_levi_pend_29_29            
70048184  GTC0_gtc_push_event_0_0_to_TIMESYNC_EVENT_INTROUTER0_in_36_36                 
70016730  HwiP_Params_init                                                              
700166d0  HwiP_clearInt                                                                 
70016750  HwiP_construct                                                                
70016d70  HwiP_data_abort_handler                                                       
70016900  HwiP_destruct                                                                 
70016e18  HwiP_disable                                                                  
70016e28  HwiP_disableFIQ                                                               
70016600  HwiP_disableInt                                                               
70016e70  HwiP_disableVIC                                                               
70016e38  HwiP_enable                                                                   
70016e48  HwiP_enableFIQ                                                                
700165c0  HwiP_enableInt                                                                
70016e60  HwiP_enableVIC                                                                
70016be0  HwiP_fiq_handler                                                              
70016e80  HwiP_getCPSR                                                                  
70016b10  HwiP_inISR                                                                    
70016a00  HwiP_init                                                                     
70016da0  HwiP_irq_handler                                                              
70016b30  HwiP_irq_handler_c                                                            
70016700  HwiP_post                                                                     
70016d40  HwiP_prefetch_abort_handler                                                   
70016cb0  HwiP_reserved_handler                                                         
70016e58  HwiP_restore                                                                  
70016650  HwiP_restoreInt                                                               
70016d10  HwiP_svc_handler                                                              
70016ce0  HwiP_undefined_handler                                                        
7000c2a0  LPDDR4_CheckCtlInterrupt                                                      
700135b0  LPDDR4_Init                                                                   
700160e0  LPDDR4_Probe                                                                  
70012d40  LPDDR4_ReadReg                                                                
700105e0  LPDDR4_Start                                                                  
70013cb0  LPDDR4_WriteCtlConfig                                                         
70013620  LPDDR4_WritePhyConfig                                                         
70013a80  LPDDR4_WritePhyIndepConfig                                                    
7004818c  MAIN_GPIOMUX_INTROUTER0_outp_0_15_to_GICSS0_spi_32_47                         
70048194  MAIN_GPIOMUX_INTROUTER0_outp_0_15_to_R5FSS0_CORE0_intr_32_47                  
7004819c  MAIN_GPIOMUX_INTROUTER0_outp_0_15_to_R5FSS0_CORE1_intr_32_47                  
700481a4  MAIN_GPIOMUX_INTROUTER0_outp_0_15_to_R5FSS1_CORE0_intr_32_47                  
700481ac  MAIN_GPIOMUX_INTROUTER0_outp_0_15_to_R5FSS1_CORE1_intr_32_47                  
700481b4  MAIN_GPIOMUX_INTROUTER0_outp_16_17_to_DMASS0_INTAGGR_0_intaggr_levi_pend_24_25
700481bc  MAIN_GPIOMUX_INTROUTER0_outp_18_23_to_PRU_ICSSG0_pr1_iep0_cap_intr_req_4_9    
700481c4  MAIN_GPIOMUX_INTROUTER0_outp_18_23_to_PRU_ICSSG1_pr1_iep0_cap_intr_req_4_9    
700481cc  MAIN_GPIOMUX_INTROUTER0_outp_24_29_to_PRU_ICSSG0_pr1_iep1_cap_intr_req_10_15  
700481d4  MAIN_GPIOMUX_INTROUTER0_outp_24_29_to_PRU_ICSSG1_pr1_iep1_cap_intr_req_10_15  
700481dc  MAIN_GPIOMUX_INTROUTER0_outp_30_37_to_DMASS0_INTAGGR_0_intaggr_levi_pend_16_23
700481e4  MAIN_GPIOMUX_INTROUTER0_outp_38_45_to_PRU_ICSSG0_pr1_slv_intr_46_53           
700481ec  MAIN_GPIOMUX_INTROUTER0_outp_46_53_to_PRU_ICSSG1_pr1_slv_intr_46_53           
700481f4  MCU_GPIO0_gpio_0_29_to_MCU_MCU_GPIOMUX_INTROUTER0_in_0_29                     
700481fc  MCU_GPIO0_gpio_bank_30_31_to_MCU_MCU_GPIOMUX_INTROUTER0_in_30_31              
70048204  MCU_MCU_GPIOMUX_INTROUTER0_outp_0_3_to_GICSS0_spi_104_107                     
7004820c  MCU_MCU_GPIOMUX_INTROUTER0_outp_0_3_to_R5FSS0_CORE0_intr_104_107              
70048214  MCU_MCU_GPIOMUX_INTROUTER0_outp_0_3_to_R5FSS0_CORE1_intr_104_107              
7004821c  MCU_MCU_GPIOMUX_INTROUTER0_outp_0_3_to_R5FSS1_CORE0_intr_104_107              
70048224  MCU_MCU_GPIOMUX_INTROUTER0_outp_0_3_to_R5FSS1_CORE1_intr_104_107              
7004822c  MCU_MCU_GPIOMUX_INTROUTER0_outp_4_7_to_MCU_M4FSS0_CORE0_nvic_0_3              
70048234  MCU_MCU_GPIOMUX_INTROUTER0_outp_8_11_to_MCU_ESM0_esm_pls_event0_88_91         
7004823c  MCU_MCU_GPIOMUX_INTROUTER0_outp_8_11_to_MCU_ESM0_esm_pls_event1_92_95         
70048244  MCU_MCU_GPIOMUX_INTROUTER0_outp_8_11_to_MCU_ESM0_esm_pls_event2_96_99         
70013d20  MMCSD_close                                                                   
7000e650  MMCSD_enableBootPartition                                                     
70016100  MMCSD_getBlockSize                                                            
70015250  MMCSD_getHandle                                                               
70011630  MMCSD_init                                                                    
70000100  MMCSD_open                                                                    
700114d0  MMCSD_parseCIDEmmc                                                            
70011c20  MMCSD_parseCIDSd                                                              
700142d0  MMCSD_parseCSDEmmc                                                            
70010860  MMCSD_parseCSDSd                                                              
70010e10  MMCSD_parseECSDEmmc                                                           
700154b0  MMCSD_parseSCRSd                                                              
7000c8a0  MMCSD_read                                                                    
7000c420  MMCSD_write                                                                   
700154f0  Module_clockEnable                                                            
70015170  Module_clockSetFrequency                                                      
70017330  MpuP_RegionAttrs_init                                                         
70017480  MpuP_disable                                                                  
70017580  MpuP_disableAsm                                                               
70017598  MpuP_disableBRAsm                                                             
70017430  MpuP_enable                                                                   
700175a8  MpuP_enableAsm                                                                
700175c0  MpuP_enableBRAsm                                                              
700174e0  MpuP_init                                                                     
700174d0  MpuP_isEnable                                                                 
700175d0  MpuP_isEnableAsm                                                              
70017350  MpuP_setRegion                                                                
700175e4  MpuP_setRegionAsm                                                             
70015c50  OSPI_ReadCmdParams_init                                                       
70015f80  OSPI_Transaction_init                                                         
70015c80  OSPI_WriteCmdParams_init                                                      
70011fe0  OSPI_close                                                                    
70014980  OSPI_disablePhy                                                               
70015cb0  OSPI_disablePhyPipeline                                                       
70015670  OSPI_dmaClose                                                                 
700152a0  OSPI_dmaCopy                                                                  
70013d90  OSPI_dmaOpen                                                                  
70015ce0  OSPI_enableDDR                                                                
70015980  OSPI_enableDacMode                                                            
70013af0  OSPI_enablePhy                                                                
70015d10  OSPI_enableSDR                                                                
70016360  OSPI_getFlashDataBaseAddr                                                     
700152f0  OSPI_getHandle                                                                
70016420  OSPI_getXferLines                                                             
70011790  OSPI_init                                                                     
70016430  OSPI_isDtrEnable                                                              
70016440  OSPI_isPhyEnable                                                              
70008480  OSPI_open                                                                     
70003880  OSPI_phyFindOTP1                                                              
700073c0  OSPI_phyFindOTP2                                                              
70012080  OSPI_phyFindRxHigh                                                            
70012120  OSPI_phyFindRxLow                                                             
700121c0  OSPI_phyFindTxHigh                                                            
70012260  OSPI_phyFindTxLow                                                             
70016270  OSPI_phyGetTuningData                                                         
700130c0  OSPI_phyReadAttackVector                                                      
700127b0  OSPI_phyResyncDLL                                                             
70013fc0  OSPI_phySetRdDelayTxRxDLL                                                     
70010a00  OSPI_phyTuneDDR                                                               
7000c110  OSPI_readCmd                                                                  
7000d910  OSPI_readDirect                                                               
70015d40  OSPI_setCmdDummyCycles                                                        
700163c0  OSPI_setCmdExtType                                                            
70014f90  OSPI_setDeviceSize                                                            
700161c0  OSPI_setDualOpCodeMode                                                        
700158b0  OSPI_setNumAddrBytes                                                          
700163d0  OSPI_setPhyEnableSuccess                                                      
700159b0  OSPI_setRdDataCaptureDelay                                                    
70015d70  OSPI_setReadDummyCycles                                                       
700144b0  OSPI_setXferLines                                                             
70012600  OSPI_setXferOpCodes                                                           
7000bf80  OSPI_writeCmd                                                                 
7000ce70  OSPI_writeIndirect                                                            
7004824c  PCIE0_pcie_cpts_comp_0_0_to_CMP_EVENT_INTROUTER0_in_81_81                     
70048254  PCIE0_pcie_cpts_genf0_1_1_to_TIMESYNC_EVENT_INTROUTER0_in_23_23               
7004825c  PCIE0_pcie_cpts_hw1_push_2_2_to_TIMESYNC_EVENT_INTROUTER0_in_37_37            
70048264  PCIE0_pcie_cpts_sync_3_3_to_TIMESYNC_EVENT_INTROUTER0_in_33_33                
7004826c  PCIE0_pcie_ptm_valid_pulse_4_4_to_TIMESYNC_EVENT_INTROUTER0_in_38_38          
70048274  PRU_ICSSG0_pr1_edc0_sync0_out_0_0_to_TIMESYNC_EVENT_INTROUTER0_in_25_25       
7004827c  PRU_ICSSG0_pr1_edc0_sync1_out_1_1_to_TIMESYNC_EVENT_INTROUTER0_in_26_26       
70048284  PRU_ICSSG0_pr1_edc1_sync0_out_2_2_to_TIMESYNC_EVENT_INTROUTER0_in_27_27       
7004828c  PRU_ICSSG0_pr1_edc1_sync1_out_3_3_to_TIMESYNC_EVENT_INTROUTER0_in_28_28       
70048294  PRU_ICSSG0_pr1_host_intr_req_4_11_to_CMP_EVENT_INTROUTER0_in_0_7              
7004829c  PRU_ICSSG0_pr1_iep0_cmp_intr_req_12_27_to_CMP_EVENT_INTROUTER0_in_16_31       
700482a4  PRU_ICSSG0_pr1_iep1_cmp_intr_req_28_43_to_CMP_EVENT_INTROUTER0_in_32_47       
700482ac  PRU_ICSSG1_pr1_edc0_sync0_out_0_0_to_TIMESYNC_EVENT_INTROUTER0_in_29_29       
700482b4  PRU_ICSSG1_pr1_edc0_sync1_out_1_1_to_TIMESYNC_EVENT_INTROUTER0_in_30_30       
700482bc  PRU_ICSSG1_pr1_edc1_sync0_out_2_2_to_TIMESYNC_EVENT_INTROUTER0_in_31_31       
700482c4  PRU_ICSSG1_pr1_edc1_sync1_out_3_3_to_TIMESYNC_EVENT_INTROUTER0_in_32_32       
700482cc  PRU_ICSSG1_pr1_host_intr_req_4_11_to_CMP_EVENT_INTROUTER0_in_8_15             
700482d4  PRU_ICSSG1_pr1_iep0_cmp_intr_req_12_27_to_CMP_EVENT_INTROUTER0_in_48_63       
700482dc  PRU_ICSSG1_pr1_iep1_cmp_intr_req_28_43_to_CMP_EVENT_INTROUTER0_in_64_79       
7000eb70  Pinmux_config                                                                 
70015da0  Pinmux_init                                                                   
700163e0  PowerClock_init                                                               
700157f0  SOC_controlModuleLockMMR                                                      
70014a40  SOC_controlModuleUnlockMMR                                                    
70011290  SOC_moduleClockEnable                                                         
7000b320  SOC_moduleSetClockFrequency                                                   
70012dc0  Sciclient_abiCheck                                                            
70010ad0  Sciclient_boardCfg                                                            
70010ba0  Sciclient_boardCfgPm                                                          
70010c70  Sciclient_boardCfgRm                                                          
70010d40  Sciclient_boardCfgSec                                                         
70012690  Sciclient_getContext                                                          
70015a40  Sciclient_getCurrentContext                                                   
700161e0  Sciclient_getDevId                                                            
700163f0  Sciclient_getSelfDevIdCore                                                    
7000ddb0  Sciclient_getVersionCheck                                                     
7000f500  Sciclient_init                                                                
7000bde0  Sciclient_loadFirmware                                                        
70011110  Sciclient_pmGetModuleClkNumParent                                             
700119a0  Sciclient_pmGetModuleClkParent                                                
70011580  Sciclient_pmGetModuleState                                                    
70012720  Sciclient_pmModuleClkRequest                                                  
70011cc0  Sciclient_pmModuleGetClkStatus                                                
7000db70  Sciclient_pmQueryModuleClkFreq                                                
7000ec70  Sciclient_pmSetModuleClkFreq                                                  
70012300  Sciclient_pmSetModuleClkParent                                                
70013140  Sciclient_pmSetModuleRst                                                      
700123a0  Sciclient_pmSetModuleState                                                    
70012ba0  Sciclient_rmGetResourceRange                                                  
70016520  Sciclient_rmIrqSet                                                            
70013690  Sciclient_rmIrqSetRaw                                                         
70016530  Sciclient_rmIrqTranslateIaOutput                                              
700095d0  Sciclient_rmProgramInterruptRoute                                             
70013440  Sciclient_rmPsilPair                                                          
700134c0  Sciclient_rmPsilUnpair                                                        
70013700  Sciclient_rmRingCfg                                                           
7000e320  Sciclient_rmTranslateIntOutput                                                
70013770  Sciclient_rmUdmapFlowCfg                                                      
700137e0  Sciclient_rmUdmapFlowSizeThreshCfg                                            
70013850  Sciclient_rmUdmapRxChCfg                                                      
700138c0  Sciclient_rmUdmapTxChCfg                                                      
70006ef0  Sciclient_service                                                             
70014330  SemaphoreP_constructBinary                                                    
70014510  SemaphoreP_constructMutex                                                     
70016540  SemaphoreP_destruct                                                           
7000ea70  SemaphoreP_pend                                                               
70014570  SemaphoreP_post                                                               
70012840  System_init                                                                   
700482e4  TIMER0_timer_pwm_0_0_to_TIMESYNC_EVENT_INTROUTER0_in_0_0                      
700482ec  TIMER1_timer_pwm_0_0_to_TIMESYNC_EVENT_INTROUTER0_in_1_1                      
700482f4  TIMER2_timer_pwm_0_0_to_TIMESYNC_EVENT_INTROUTER0_in_2_2                      
700482fc  TIMER3_timer_pwm_0_0_to_TIMESYNC_EVENT_INTROUTER0_in_3_3                      
70048304  TIMESYNC_EVENT_INTROUTER0_outl_0_7_to_DMASS0_INTAGGR_0_intaggr_levi_pend_8_15 
7004830c  TIMESYNC_EVENT_INTROUTER0_outl_10_10_to_PRU_ICSSG0_pr1_edc1_latch0_in_2_2     
70048314  TIMESYNC_EVENT_INTROUTER0_outl_11_11_to_PRU_ICSSG0_pr1_edc1_latch1_in_3_3     
7004831c  TIMESYNC_EVENT_INTROUTER0_outl_12_12_to_PRU_ICSSG1_pr1_edc0_latch0_in_0_0     
70048324  TIMESYNC_EVENT_INTROUTER0_outl_13_13_to_PRU_ICSSG1_pr1_edc0_latch1_in_1_1     
7004832c  TIMESYNC_EVENT_INTROUTER0_outl_14_14_to_PRU_ICSSG1_pr1_edc1_latch0_in_2_2     
70048334  TIMESYNC_EVENT_INTROUTER0_outl_15_15_to_PRU_ICSSG1_pr1_edc1_latch1_in_3_3     
7004833c  TIMESYNC_EVENT_INTROUTER0_outl_16_16_to_CPTS0_cpts_hw1_push_0_0               
70048344  TIMESYNC_EVENT_INTROUTER0_outl_17_17_to_CPTS0_cpts_hw2_push_1_1               
7004834c  TIMESYNC_EVENT_INTROUTER0_outl_18_18_to_CPTS0_cpts_hw3_push_2_2               
70048354  TIMESYNC_EVENT_INTROUTER0_outl_19_19_to_CPTS0_cpts_hw4_push_3_3               
7004835c  TIMESYNC_EVENT_INTROUTER0_outl_20_20_to_CPTS0_cpts_hw5_push_4_4               
70048364  TIMESYNC_EVENT_INTROUTER0_outl_21_21_to_CPTS0_cpts_hw6_push_5_5               
7004836c  TIMESYNC_EVENT_INTROUTER0_outl_22_22_to_CPTS0_cpts_hw7_push_6_6               
70048374  TIMESYNC_EVENT_INTROUTER0_outl_23_23_to_CPTS0_cpts_hw8_push_7_7               
7004837c  TIMESYNC_EVENT_INTROUTER0_outl_29_29_to_PCIE0_pcie_cpts_hw2_push_0_0          
70048384  TIMESYNC_EVENT_INTROUTER0_outl_30_30_to_CPSW0_cpts_hw1_push_0_0               
7004838c  TIMESYNC_EVENT_INTROUTER0_outl_31_31_to_CPSW0_cpts_hw2_push_1_1               
70048394  TIMESYNC_EVENT_INTROUTER0_outl_32_32_to_CPSW0_cpts_hw3_push_2_2               
7004839c  TIMESYNC_EVENT_INTROUTER0_outl_33_33_to_CPSW0_cpts_hw4_push_3_3               
700483a4  TIMESYNC_EVENT_INTROUTER0_outl_34_34_to_CPSW0_cpts_hw5_push_4_4               
700483ac  TIMESYNC_EVENT_INTROUTER0_outl_35_35_to_CPSW0_cpts_hw6_push_5_5               
700483b4  TIMESYNC_EVENT_INTROUTER0_outl_36_36_to_CPSW0_cpts_hw7_push_6_6               
700483bc  TIMESYNC_EVENT_INTROUTER0_outl_37_37_to_CPSW0_cpts_hw8_push_7_7               
700483c4  TIMESYNC_EVENT_INTROUTER0_outl_8_8_to_PRU_ICSSG0_pr1_edc0_latch0_in_0_0       
700483cc  TIMESYNC_EVENT_INTROUTER0_outl_9_9_to_PRU_ICSSG0_pr1_edc0_latch1_in_1_1       
70016218  TI_memcpy_small                                                               
700162e8  TI_memset_small                                                               
70016550  TaskP_yield                                                                   
70015dd0  TimerP_Params_init                                                            
70016290  TimerP_clearOverflowInt                                                       
70016480  TimerP_getCount                                                               
70016490  TimerP_getReloadCount                                                         
7000aa30  TimerP_setup                                                                  
70016400  TimerP_start                                                                  
7000bc30  UART_close                                                                    
7000ed70  UART_flushTxFifo                                                              
70015340  UART_getHandle                                                                
70010ed0  UART_init                                                                     
700069f0  UART_open                                                                     
700080a0  UART_read                                                                     
7000a500  UART_write                                                                    
700145d0  UdmaChPrms_init                                                               
70014090  UdmaChRxPrms_init                                                             
70012fc0  UdmaChTxPrms_init                                                             
70013e00  UdmaEventPrms_init                                                            
700140f0  UdmaFlowPrms_init                                                             
70014fe0  UdmaRingPrms_init                                                             
70009280  UdmaRmInitPrms_init                                                           
70015fb0  UdmaUtils_getRingMemSize                                                      
70013040  UdmaUtils_makeTrpd                                                            
700156b0  UdmaUtils_makeTrpdTr15                                                        
7000f8c0  Udma_chClose                                                                  
7000b8d0  Udma_chConfigRx                                                               
7000d6b0  Udma_chConfigTx                                                               
700049d0  Udma_chDisable                                                                
7000cfe0  Udma_chEnable                                                                 
70015530  Udma_chGetCqRingHandle                                                        
70015030  Udma_chGetCqRingNum                                                           
70015570  Udma_chGetFqRingHandle                                                        
70005f50  Udma_chOpen                                                                   
70016560  Udma_defaultPhyToVirtFxn                                                      
700164a0  Udma_defaultVirtToPhyFxn                                                      
70005920  Udma_eventRegister                                                            
7000d150  Udma_flowConfig                                                               
70014a90  Udma_getMappedChRingAttributes                                                
7000ef60  Udma_init                                                                     
70009c30  Udma_initDrvHandle                                                            
700164b0  Udma_isCacheCoherent                                                          
70014630  Udma_lcdmaRingaccMemOps                                                       
700155b0  Udma_phyToVirtFxn                                                             
7000ac90  Udma_ringAlloc                                                                
700128d0  Udma_ringDequeueRaw                                                           
70015fe0  Udma_ringDequeueRawLcdma                                                      
70013b60  Udma_ringFlushRaw                                                             
700118f0  Udma_ringFlushRawLcdma                                                        
70011ae0  Udma_ringFree                                                                 
70015e00  Udma_ringGetElementCntLcdma                                                   
70015390  Udma_ringGetForwardRingOccLcdma                                               
70015e30  Udma_ringGetMemPtrLcdma                                                       
70015e60  Udma_ringGetModeLcdma                                                         
70015e90  Udma_ringGetNum                                                               
70015ec0  Udma_ringGetRdIdxLcdma                                                        
700153e0  Udma_ringGetReverseRingOccLcdma                                               
70015ef0  Udma_ringGetWrIdxLcdma                                                        
70016410  Udma_ringHandleClearRegsLcdma                                                 
700156f0  Udma_ringPrimeLcdma                                                           
700149e0  Udma_ringPrimeReadLcdma                                                       
70012570  Udma_ringQueueRaw                                                             
70015f20  Udma_ringQueueRawLcdma                                                        
70010340  Udma_ringSetCfgLcdma                                                          
70013e70  Udma_ringSetDoorBellLcdma                                                     
7000f9a0  Udma_rmAllocBlkCopyCh                                                         
7000fa80  Udma_rmAllocBlkCopyHcCh                                                       
7000fb60  Udma_rmAllocBlkCopyUhcCh                                                      
70012e40  Udma_rmAllocEvent                                                             
700164c0  Udma_rmAllocFreeRing                                                          
7000fc40  Udma_rmAllocIrIntr                                                            
70010930  Udma_rmAllocMappedRing                                                        
7000f140  Udma_rmAllocMappedRxCh                                                        
7000f230  Udma_rmAllocMappedTxCh                                                        
7000fd20  Udma_rmAllocRxCh                                                              
7000fe00  Udma_rmAllocRxHcCh                                                            
7000fee0  Udma_rmAllocRxUhcCh                                                           
7000ffc0  Udma_rmAllocTxCh                                                              
700100a0  Udma_rmAllocTxHcCh                                                            
70010180  Udma_rmAllocTxUhcCh                                                           
70012ec0  Udma_rmAllocVintr                                                             
70012440  Udma_rmAllocVintrBit                                                          
70014ae0  Udma_rmFreeBlkCopyCh                                                          
70014b30  Udma_rmFreeBlkCopyHcCh                                                        
70014b80  Udma_rmFreeBlkCopyUhcCh                                                       
70014bd0  Udma_rmFreeEvent                                                              
70016570  Udma_rmFreeFreeRing                                                           
70014c20  Udma_rmFreeIrIntr                                                             
70012960  Udma_rmFreeMappedRing                                                         
70014690  Udma_rmFreeMappedRxCh                                                         
700146f0  Udma_rmFreeMappedTxCh                                                         
70014c70  Udma_rmFreeRxCh                                                               
70014cc0  Udma_rmFreeRxHcCh                                                             
70014d10  Udma_rmFreeRxUhcCh                                                            
70014d60  Udma_rmFreeTxCh                                                               
70014db0  Udma_rmFreeTxHcCh                                                             
70014e00  Udma_rmFreeTxUhcCh                                                            
70014e50  Udma_rmFreeVintr                                                              
70013bd0  Udma_rmFreeVintrBit                                                           
70016120  Udma_rmGetDefBoardCfgPrms                                                     
7000f050  Udma_rmGetSciclientDefaultBoardCfgRmRange                                     
70015080  Udma_rmGetSharedResPrms                                                       
70007ca0  Udma_rmInit                                                                   
7000cb90  Udma_rmSetSharedResRmInitPrms                                                 
700162b0  Udma_rmTranslateCoreIntrInput                                                 
700162d0  Udma_rmTranslateIrOutput                                                      
70015870  Udma_virtToPhyFxn                                                             
700129f0  _DebugP_assert                                                                
70017700  _DebugP_assertNoLog                                                           
70014150  _DebugP_logZone                                                               
7007fb00  __ABORT_STACK_END                                                             
00000100  __ABORT_STACK_SIZE                                                            
7007fa00  __ABORT_STACK_START                                                           
70072800  __BSS_END                                                                     
70068000  __BSS_START                                                                   
7007f900  __FIQ_STACK_END                                                               
00000100  __FIQ_STACK_SIZE                                                              
7007f800  __FIQ_STACK_START                                                             
7007f800  __IRQ_STACK_END                                                               
00001000  __IRQ_STACK_SIZE                                                              
7007e800  __IRQ_STACK_START                                                             
7007e800  __STACK_END                                                                   
00004000  __STACK_SIZE                                                                  
7007fa00  __SVC_STACK_END                                                               
00000100  __SVC_STACK_SIZE                                                              
7007f900  __SVC_STACK_START                                                             
00008000  __SYSMEM_SIZE                                                                 
UNDEFED   __TI_CINIT_Base                                                               
UNDEFED   __TI_CINIT_Limit                                                              
UNDEFED   __TI_Handler_Table_Base                                                       
UNDEFED   __TI_Handler_Table_Limit                                                      
7001438c  __TI_auto_init_nobinit_nopinit                                                
ffffffff  __TI_pprof_out_hndl                                                           
70001638  __TI_printfi_nofloat                                                          
ffffffff  __TI_prof_data_size                                                           
ffffffff  __TI_prof_data_start                                                          
70000000  __TI_static_base__                                                            
7007fc00  __UNDEFINED_STACK_END                                                         
00000100  __UNDEFINED_STACK_SIZE                                                        
7007fb00  __UNDEFINED_STACK_START                                                       
700473a0  __aeabi_ctype_table_                                                          
700473a0  __aeabi_ctype_table_C                                                         
70019d6c  __aeabi_errno                                                                 
700073b4  __aeabi_errno_addr                                                            
70016580  __aeabi_idiv0                                                                 
70016590  __aeabi_ldiv0                                                                 
70016244  __aeabi_memclr                                                                
70016244  __aeabi_memclr4                                                               
70016244  __aeabi_memclr8                                                               
70002e7c  __aeabi_memcpy                                                                
70002e7c  __aeabi_memcpy4                                                               
70002e7c  __aeabi_memcpy8                                                               
70016234  __aeabi_memset                                                                
70016234  __aeabi_memset4                                                               
70016234  __aeabi_memset8                                                               
7000b6f4  __aeabi_uidiv                                                                 
70016034  __aeabi_uldivmod                                                              
ffffffff  __binit__                                                                     
70017740  __mpu_init                                                                    
7007a800  __stack                                                                       
70068000  __start___llvm_prf_cnts                                                       
70068000  __stop___llvm_prf_cnts                                                        
7000dec8  __udivmoddi4                                                                  
7000b6f4  __udivsi3                                                                     
70017624  _c_int00                                                                      
70017600  _c_int00_sbl                                                                  
70013930  _inbyte                                                                       
70014750  _outbyte                                                                      
70072800  _sys_memory                                                                   
UNDEFED   _system_post_cinit                                                            
70016010  _system_pre_init                                                              
70000000  _vectors_sbl                                                                  
70004168  abort                                                                         
70013c3c  atoi                                                                          
ffffffff  binit                                                                         
700155f0  crc16_ccitt                                                                   
700725f4  gADMA2Desc                                                                    
70019d08  gAddrTranslateConfig                                                          
70047f80  gBoardConfigLow_debug                                                         
70019d2c  gCacheConfig                                                                  
70019d70  gCacheL1dCacheLineSize                                                        
70019d74  gCacheL1pCacheLineSize                                                        
70019cac  gClockConfig                                                                  
70072240  gClockCtrl                                                                    
70019d78  gDebugLogZone                                                                 
700727a8  gEmmcData0                                                                    
70019ce8  gFlashConfig                                                                  
70019d7c  gFlashConfigNum                                                               
7007223c  gFlashHandle                                                                  
70019b98  gFlashNorXspiAttrs_S28HS512T                                                  
70019abc  gFlashNorXspiDeviceDefines_S28HS512T                                          
70019cc0  gFlashNorXspiFxns                                                             
700727f0  gFlashObject_S28HS512T                                                        
70019d80  gHwiConfig                                                                    
70070000  gHwiCtrl                                                                      
70019d34  gMmcsdConfig                                                                  
70019d84  gMmcsdConfigNum                                                               
70072280  gMmcsdDataBuf0                                                                
70072278  gMmcsdHandle                                                                  
70019d3c  gMmcsdParams                                                                  
70019d14  gMpuConfig                                                                    
700199d0  gMpuRegionConfig                                                              
70019d44  gOspiConfig                                                                   
70019d88  gOspiConfigNum                                                                
70019d4c  gOspiDmaConfig                                                                
70019d8c  gOspiDmaConfigNum                                                             
70019d20  gOspiDmaUdmaFxns                                                              
7007227c  gOspiHandle                                                                   
70019d90  gOspiParams                                                                   
70019c90  gOspiUdma0Args                                                                
70019d94  gPhyTuneWindowParams                                                          
70019bc0  gPhyTuneWindowParamsGTE133                                                    
70019be8  gPhyTuneWindowParamsLT133                                                     
70019c30  gRmIaInstances                                                                
70019918  gRmIrInstances                                                                
70047c6c  gRmIrqTree                                                                    
70047cc4  gRmIrqTreeCount                                                               
70047058  gSciclientMap                                                                 
70019c50  gSciclientSecProxyCfg                                                         
70019c70  gSocModules                                                                   
70019b40  gSocModulesClockFrequency                                                     
70019e00  gSysFw                                                                        
70019d64  gUartConfig                                                                   
70019dac  gUartConfigNum                                                                
700727fc  gUartHandle                                                                   
70019a70  gUartParams                                                                   
70071008  gUdmaDrvObj                                                                   
700478e4  gUdmaRmDefBoardCfg_Bcdma                                                      
70046ae0  gUdmaRmDefBoardCfg_Pktdma                                                     
70019978  gUdmaRmSharedResPrms                                                          
70047848  gUdmaRxMappedChRingAttributes                                                 
70046f20  gUdmaTxMappedChRingAttributes                                                 
80000000  gUniflashFileBuf                                                              
70068000  gUniflashVerifyBuf                                                            
70010500  main                                                                          
700151b8  memccpy                                                                       
700165b0  putchar_                                                                      
70013534  snprintf                                                                      
70047fd4  tisci_if_CMP_EVENT_INTROUTER0                                                 
70047f70  tisci_if_CPSW0                                                                
70047f34  tisci_if_CPTS0                                                                
70047e44  tisci_if_DMASS0_INTAGGR_0                                                     
70048014  tisci_if_EPWM0                                                                
70048024  tisci_if_EPWM3                                                                
70048034  tisci_if_EPWM6                                                                
700483d4  tisci_if_GPIO0                                                                
700483dc  tisci_if_GPIO1                                                                
70048044  tisci_if_GPMC0                                                                
7004849c  tisci_if_GTC0                                                                 
70047de0  tisci_if_MAIN_GPIOMUX_INTROUTER0                                              
700483e4  tisci_if_MCU_GPIO0                                                            
70047ecc  tisci_if_MCU_MCU_GPIOMUX_INTROUTER0                                           
70047fec  tisci_if_PCIE0                                                                
70047f54  tisci_if_PRU_ICSSG0                                                           
70047fa0  tisci_if_PRU_ICSSG1                                                           
700484a0  tisci_if_TIMER0                                                               
700484a4  tisci_if_TIMER1                                                               
700484a8  tisci_if_TIMER2                                                               
700484ac  tisci_if_TIMER3                                                               
70047b44  tisci_if_TIMESYNC_EVENT_INTROUTER0                                            
70019532  vint_usage_count_DMASS0_INTAGGR_0                                             
70015a70  vprintf_                                                                      
70016140  wcslen                                                                        
70009910  xmodemReceive                                                                 
70009f40  xmodemTransmit                                                                


GLOBAL SYMBOLS: SORTED BY Symbol Address 

address   name                                                                          
-------   ----                                                                          
00000100  __ABORT_STACK_SIZE                                                            
00000100  __FIQ_STACK_SIZE                                                              
00000100  __SVC_STACK_SIZE                                                              
00000100  __UNDEFINED_STACK_SIZE                                                        
00001000  __IRQ_STACK_SIZE                                                              
00004000  __STACK_SIZE                                                                  
00008000  __SYSMEM_SIZE                                                                 
70000000  __TI_static_base__                                                            
70000000  _vectors_sbl                                                                  
70000100  MMCSD_open                                                                    
70001638  __TI_printfi_nofloat                                                          
70002e7c  __aeabi_memcpy                                                                
70002e7c  __aeabi_memcpy4                                                               
70002e7c  __aeabi_memcpy8                                                               
70003880  OSPI_phyFindOTP1                                                              
70004168  C$$EXIT                                                                       
70004168  abort                                                                         
700049d0  Udma_chDisable                                                                
70005200  CSL_bcdmaChanOp                                                               
70005920  Udma_eventRegister                                                            
70005f50  Udma_chOpen                                                                   
700069f0  UART_open                                                                     
70006ef0  Sciclient_service                                                             
700073b4  __aeabi_errno_addr                                                            
700073c0  OSPI_phyFindOTP2                                                              
70007ca0  Udma_rmInit                                                                   
700080a0  UART_read                                                                     
70008480  OSPI_open                                                                     
70008810  Bootloader_uniflashProcessFlashCommands                                       
70009280  UdmaRmInitPrms_init                                                           
700095d0  Sciclient_rmProgramInterruptRoute                                             
70009910  xmodemReceive                                                                 
70009c30  Udma_initDrvHandle                                                            
70009f40  xmodemTransmit                                                                
7000a500  UART_write                                                                    
7000a7b0  DDR_init                                                                      
7000aa30  TimerP_setup                                                                  
7000ac90  Udma_ringAlloc                                                                
7000b320  SOC_moduleSetClockFrequency                                                   
7000b6f4  __aeabi_uidiv                                                                 
7000b6f4  __udivsi3                                                                     
7000b8d0  Udma_chConfigRx                                                               
7000bc30  UART_close                                                                    
7000bde0  Sciclient_loadFirmware                                                        
7000bf80  OSPI_writeCmd                                                                 
7000c110  OSPI_readCmd                                                                  
7000c2a0  LPDDR4_CheckCtlInterrupt                                                      
7000c420  MMCSD_write                                                                   
7000c720  Bootloader_MmcsdRaw_writeToOffset                                             
7000c8a0  MMCSD_read                                                                    
7000cb90  Udma_rmSetSharedResRmInitPrms                                                 
7000cd00  ClockP_init                                                                   
7000ce70  OSPI_writeIndirect                                                            
7000cfe0  Udma_chEnable                                                                 
7000d150  Udma_flowConfig                                                               
7000d560  Bootloader_MmcsdRaw_readFromOffset                                            
7000d6b0  Udma_chConfigTx                                                               
7000d910  OSPI_readDirect                                                               
7000db70  Sciclient_pmQueryModuleClkFreq                                                
7000ddb0  Sciclient_getVersionCheck                                                     
7000dec8  __udivmoddi4                                                                  
7000e100  Bootloader_socLoadSysFw                                                       
7000e320  Sciclient_rmTranslateIntOutput                                                
7000e650  MMCSD_enableBootPartition                                                     
7000ea70  SemaphoreP_pend                                                               
7000eb70  Pinmux_config                                                                 
7000ec70  Sciclient_pmSetModuleClkFreq                                                  
7000ed70  UART_flushTxFifo                                                              
7000ee70  CSL_lcdma_ringaccDequeue                                                      
7000ef60  Udma_init                                                                     
7000f050  Udma_rmGetSciclientDefaultBoardCfgRmRange                                     
7000f140  Udma_rmAllocMappedRxCh                                                        
7000f230  Udma_rmAllocMappedTxCh                                                        
7000f500  Sciclient_init                                                                
7000f8c0  Udma_chClose                                                                  
7000f9a0  Udma_rmAllocBlkCopyCh                                                         
7000fa80  Udma_rmAllocBlkCopyHcCh                                                       
7000fb60  Udma_rmAllocBlkCopyUhcCh                                                      
7000fc40  Udma_rmAllocIrIntr                                                            
7000fd20  Udma_rmAllocRxCh                                                              
7000fe00  Udma_rmAllocRxHcCh                                                            
7000fee0  Udma_rmAllocRxUhcCh                                                           
7000ffc0  Udma_rmAllocTxCh                                                              
700100a0  Udma_rmAllocTxHcCh                                                            
70010180  Udma_rmAllocTxUhcCh                                                           
70010340  Udma_ringSetCfgLcdma                                                          
70010500  main                                                                          
700105e0  LPDDR4_Start                                                                  
70010860  MMCSD_parseCSDSd                                                              
70010930  Udma_rmAllocMappedRing                                                        
70010a00  OSPI_phyTuneDDR                                                               
70010ad0  Sciclient_boardCfg                                                            
70010ba0  Sciclient_boardCfgPm                                                          
70010c70  Sciclient_boardCfgRm                                                          
70010d40  Sciclient_boardCfgSec                                                         
70010e10  MMCSD_parseECSDEmmc                                                           
70010ed0  UART_init                                                                     
70011110  Sciclient_pmGetModuleClkNumParent                                             
700111d0  ClockP_timerTickIsr                                                           
70011290  SOC_moduleClockEnable                                                         
700114d0  MMCSD_parseCIDEmmc                                                            
70011580  Sciclient_pmGetModuleState                                                    
70011630  MMCSD_init                                                                    
70011790  OSPI_init                                                                     
700118f0  Udma_ringFlushRawLcdma                                                        
700119a0  Sciclient_pmGetModuleClkParent                                                
70011ae0  Udma_ringFree                                                                 
70011c20  MMCSD_parseCIDSd                                                              
70011cc0  Sciclient_pmModuleGetClkStatus                                                
70011d60  AddrTranslateP_getLocalAddr                                                   
70011f40  Board_flashOpen                                                               
70011fe0  OSPI_close                                                                    
70012080  OSPI_phyFindRxHigh                                                            
70012120  OSPI_phyFindRxLow                                                             
700121c0  OSPI_phyFindTxHigh                                                            
70012260  OSPI_phyFindTxLow                                                             
70012300  Sciclient_pmSetModuleClkParent                                                
700123a0  Sciclient_pmSetModuleState                                                    
70012440  Udma_rmAllocVintrBit                                                          
70012570  Udma_ringQueueRaw                                                             
70012600  OSPI_setXferOpCodes                                                           
70012690  Sciclient_getContext                                                          
70012720  Sciclient_pmModuleClkRequest                                                  
700127b0  OSPI_phyResyncDLL                                                             
70012840  System_init                                                                   
700128d0  Udma_ringDequeueRaw                                                           
70012960  Udma_rmFreeMappedRing                                                         
700129f0  _DebugP_assert                                                                
70012ba0  Sciclient_rmGetResourceRange                                                  
70012cc0  Flash_offsetToBlkPage                                                         
70012d40  LPDDR4_ReadReg                                                                
70012dc0  Sciclient_abiCheck                                                            
70012e40  Udma_rmAllocEvent                                                             
70012ec0  Udma_rmAllocVintr                                                             
70012fc0  UdmaChTxPrms_init                                                             
70013040  UdmaUtils_makeTrpd                                                            
700130c0  OSPI_phyReadAttackVector                                                      
70013140  Sciclient_pmSetModuleRst                                                      
70013240  ClockP_stop                                                                   
700132c0  Drivers_mmcsdOpen                                                             
70013340  Drivers_ospiOpen                                                              
700133c0  Drivers_uartOpen                                                              
70013440  Sciclient_rmPsilPair                                                          
700134c0  Sciclient_rmPsilUnpair                                                        
70013534  snprintf                                                                      
700135b0  LPDDR4_Init                                                                   
70013620  LPDDR4_WritePhyConfig                                                         
70013690  Sciclient_rmIrqSetRaw                                                         
70013700  Sciclient_rmRingCfg                                                           
70013770  Sciclient_rmUdmapFlowCfg                                                      
700137e0  Sciclient_rmUdmapFlowSizeThreshCfg                                            
70013850  Sciclient_rmUdmapRxChCfg                                                      
700138c0  Sciclient_rmUdmapTxChCfg                                                      
70013930  _inbyte                                                                       
700139a0  CSL_bcdmaGetCfg                                                               
70013a10  ClockP_construct                                                              
70013a80  LPDDR4_WritePhyIndepConfig                                                    
70013af0  OSPI_enablePhy                                                                
70013b60  Udma_ringFlushRaw                                                             
70013bd0  Udma_rmFreeVintrBit                                                           
70013c3c  atoi                                                                          
70013cb0  LPDDR4_WriteCtlConfig                                                         
70013d20  MMCSD_close                                                                   
70013d90  OSPI_dmaOpen                                                                  
70013e00  UdmaEventPrms_init                                                            
70013e70  Udma_ringSetDoorBellLcdma                                                     
70013ee0  ClockP_getTimeUsec                                                            
70013fc0  OSPI_phySetRdDelayTxRxDLL                                                     
70014030  CSL_pktdmaGetCfg                                                              
70014090  UdmaChRxPrms_init                                                             
700140f0  UdmaFlowPrms_init                                                             
70014150  _DebugP_logZone                                                               
700141b0  CSL_intaggrClrIntr                                                            
70014210  ClockP_destruct                                                               
700142d0  MMCSD_parseCSDEmmc                                                            
70014330  SemaphoreP_constructBinary                                                    
7001438c  __TI_auto_init_nobinit_nopinit                                                
700143f0  CSL_intaggrIsIntrPending                                                      
700144b0  OSPI_setXferLines                                                             
70014510  SemaphoreP_constructMutex                                                     
70014570  SemaphoreP_post                                                               
700145d0  UdmaChPrms_init                                                               
70014630  Udma_lcdmaRingaccMemOps                                                       
70014690  Udma_rmFreeMappedRxCh                                                         
700146f0  Udma_rmFreeMappedTxCh                                                         
70014750  _outbyte                                                                      
70014800  Dpl_init                                                                      
70014860  Flash_open                                                                    
70014980  OSPI_disablePhy                                                               
700149e0  Udma_ringPrimeReadLcdma                                                       
70014a40  SOC_controlModuleUnlockMMR                                                    
70014a90  Udma_getMappedChRingAttributes                                                
70014ae0  Udma_rmFreeBlkCopyCh                                                          
70014b30  Udma_rmFreeBlkCopyHcCh                                                        
70014b80  Udma_rmFreeBlkCopyUhcCh                                                       
70014bd0  Udma_rmFreeEvent                                                              
70014c20  Udma_rmFreeIrIntr                                                             
70014c70  Udma_rmFreeRxCh                                                               
70014cc0  Udma_rmFreeRxHcCh                                                             
70014d10  Udma_rmFreeRxUhcCh                                                            
70014d60  Udma_rmFreeTxCh                                                               
70014db0  Udma_rmFreeTxHcCh                                                             
70014e00  Udma_rmFreeTxUhcCh                                                            
70014e50  Udma_rmFreeVintr                                                              
70014ea0  Bootloader_xmodemReceive                                                      
70014ef0  Bootloader_xmodemTransmit                                                     
70014f40  ClockP_start                                                                  
70014f90  OSPI_setDeviceSize                                                            
70014fe0  UdmaRingPrms_init                                                             
70015030  Udma_chGetCqRingNum                                                           
70015080  Udma_rmGetSharedResPrms                                                       
70015170  Module_clockSetFrequency                                                      
700151b8  memccpy                                                                       
70015250  MMCSD_getHandle                                                               
700152a0  OSPI_dmaCopy                                                                  
700152f0  OSPI_getHandle                                                                
70015340  UART_getHandle                                                                
70015390  Udma_ringGetForwardRingOccLcdma                                               
700153e0  Udma_ringGetReverseRingOccLcdma                                               
70015430  CSL_intaggrGetCfg                                                             
70015470  ClockP_usleep                                                                 
700154b0  MMCSD_parseSCRSd                                                              
700154f0  Module_clockEnable                                                            
70015530  Udma_chGetCqRingHandle                                                        
70015570  Udma_chGetFqRingHandle                                                        
700155b0  Udma_phyToVirtFxn                                                             
700155f0  crc16_ccitt                                                                   
70015630  CSL_bcdmaGetChanPeerReg                                                       
70015670  OSPI_dmaClose                                                                 
700156b0  UdmaUtils_makeTrpdTr15                                                        
700156f0  Udma_ringPrimeLcdma                                                           
70015730  CSL_bcdmaSetChanPeerReg                                                       
70015770  CSL_pktdmaGetRxRT                                                             
700157b0  CSL_pktdmaGetTxRT                                                             
700157f0  SOC_controlModuleLockMMR                                                      
70015870  Udma_virtToPhyFxn                                                             
700158b0  OSPI_setNumAddrBytes                                                          
700158f0  CSL_bcdmaTeardownRxChan                                                       
70015920  CSL_bcdmaTeardownTxChan                                                       
70015950  DebugP_logZoneEnable                                                          
70015980  OSPI_enableDacMode                                                            
700159b0  OSPI_setRdDataCaptureDelay                                                    
70015a10  CSL_lcdma_ringaccPush64                                                       
70015a40  Sciclient_getCurrentContext                                                   
70015a70  vprintf_                                                                      
70015aa0  CSL_pktdmaGetChanPeerReg                                                      
70015ad0  CSL_pktdmaSetChanPeerReg                                                      
70015b00  CSL_pktdmaSetRxRT                                                             
70015b30  CSL_pktdmaSetTxRT                                                             
70015b60  Flash_eraseBlk                                                                
70015b90  Flash_getAttrs                                                                
70015bc0  Flash_getHandle                                                               
70015bf0  Flash_read                                                                    
70015c20  Flash_write                                                                   
70015c50  OSPI_ReadCmdParams_init                                                       
70015c80  OSPI_WriteCmdParams_init                                                      
70015cb0  OSPI_disablePhyPipeline                                                       
70015ce0  OSPI_enableDDR                                                                
70015d10  OSPI_enableSDR                                                                
70015d40  OSPI_setCmdDummyCycles                                                        
70015d70  OSPI_setReadDummyCycles                                                       
70015da0  Pinmux_init                                                                   
70015dd0  TimerP_Params_init                                                            
70015e00  Udma_ringGetElementCntLcdma                                                   
70015e30  Udma_ringGetMemPtrLcdma                                                       
70015e60  Udma_ringGetModeLcdma                                                         
70015e90  Udma_ringGetNum                                                               
70015ec0  Udma_ringGetRdIdxLcdma                                                        
70015ef0  Udma_ringGetWrIdxLcdma                                                        
70015f20  Udma_ringQueueRawLcdma                                                        
70015f50  Flash_close                                                                   
70015f80  OSPI_Transaction_init                                                         
70015fb0  UdmaUtils_getRingMemSize                                                      
70015fe0  Udma_ringDequeueRawLcdma                                                      
70016010  _system_pre_init                                                              
70016034  __aeabi_uldivmod                                                              
70016060  CSL_bcdmaGetRxRT                                                              
70016080  CSL_bcdmaGetTxRT                                                              
700160a0  CSL_bcdmaSetRxRT                                                              
700160c0  CSL_bcdmaSetTxRT                                                              
700160e0  LPDDR4_Probe                                                                  
70016100  MMCSD_getBlockSize                                                            
70016120  Udma_rmGetDefBoardCfgPrms                                                     
70016140  wcslen                                                                        
70016160  CSL_lcdma_ringaccInitRingObj                                                  
70016180  CSL_lcdma_ringaccPop64                                                        
700161a0  Flash_getPhyTuningOffset                                                      
700161c0  OSPI_setDualOpCodeMode                                                        
700161e0  Sciclient_getDevId                                                            
70016218  TI_memcpy_small                                                               
70016234  __aeabi_memset                                                                
70016234  __aeabi_memset4                                                               
70016234  __aeabi_memset8                                                               
70016244  __aeabi_memclr                                                                
70016244  __aeabi_memclr4                                                               
70016244  __aeabi_memclr8                                                               
70016250  CSL_lcdma_ringaccGetReverseRingOcc                                            
70016270  OSPI_phyGetTuningData                                                         
70016290  TimerP_clearOverflowInt                                                       
700162b0  Udma_rmTranslateCoreIntrInput                                                 
700162d0  Udma_rmTranslateIrOutput                                                      
700162e8  TI_memset_small                                                               
70016300  CSL_lcdma_ringaccGetForwardRingOcc                                            
70016320  CSL_secProxyGetDataAddr                                                       
70016340  Drivers_open                                                                  
70016360  OSPI_getFlashDataBaseAddr                                                     
70016380  ClockP_Params_init                                                            
70016390  ClockP_getTicks                                                               
700163a0  ClockP_isActive                                                               
700163c0  OSPI_setCmdExtType                                                            
700163d0  OSPI_setPhyEnableSuccess                                                      
700163e0  PowerClock_init                                                               
700163f0  Sciclient_getSelfDevIdCore                                                    
70016400  TimerP_start                                                                  
70016410  Udma_ringHandleClearRegsLcdma                                                 
70016420  OSPI_getXferLines                                                             
70016430  OSPI_isDtrEnable                                                              
70016440  OSPI_isPhyEnable                                                              
70016460  CSL_pktdmaTeardownRxChan                                                      
70016470  CSL_pktdmaTeardownTxChan                                                      
70016480  TimerP_getCount                                                               
70016490  TimerP_getReloadCount                                                         
700164a0  Udma_defaultVirtToPhyFxn                                                      
700164b0  Udma_isCacheCoherent                                                          
700164c0  Udma_rmAllocFreeRing                                                          
700164d0  Board_driversOpen                                                             
700164e0  ClockP_getTimerCount                                                          
700164f0  ClockP_timerClearOverflowInt                                                  
70016520  Sciclient_rmIrqSet                                                            
70016530  Sciclient_rmIrqTranslateIaOutput                                              
70016540  SemaphoreP_destruct                                                           
70016550  TaskP_yield                                                                   
70016560  Udma_defaultPhyToVirtFxn                                                      
70016570  Udma_rmFreeFreeRing                                                           
70016580  __aeabi_idiv0                                                                 
70016590  __aeabi_ldiv0                                                                 
700165b0  putchar_                                                                      
700165c0  HwiP_enableInt                                                                
70016600  HwiP_disableInt                                                               
70016650  HwiP_restoreInt                                                               
700166d0  HwiP_clearInt                                                                 
70016700  HwiP_post                                                                     
70016730  HwiP_Params_init                                                              
70016750  HwiP_construct                                                                
70016900  HwiP_destruct                                                                 
70016a00  HwiP_init                                                                     
70016b10  HwiP_inISR                                                                    
70016b30  HwiP_irq_handler_c                                                            
70016be0  HwiP_fiq_handler                                                              
70016cb0  HwiP_reserved_handler                                                         
70016ce0  HwiP_undefined_handler                                                        
70016d10  HwiP_svc_handler                                                              
70016d40  HwiP_prefetch_abort_handler                                                   
70016d70  HwiP_data_abort_handler                                                       
70016da0  HwiP_irq_handler                                                              
70016e18  HwiP_disable                                                                  
70016e28  HwiP_disableFIQ                                                               
70016e38  HwiP_enable                                                                   
70016e48  HwiP_enableFIQ                                                                
70016e58  HwiP_restore                                                                  
70016e60  HwiP_enableVIC                                                                
70016e70  HwiP_disableVIC                                                               
70016e80  HwiP_getCPSR                                                                  
70016e90  CacheP_disableL1d                                                             
70016eb8  CacheP_disableL1p                                                             
70016ed0  CacheP_enableL1d                                                              
70016ee8  CacheP_enableL1p                                                              
70016f00  CacheP_invL1d                                                                 
70016f38  CacheP_invL1p                                                                 
70016f74  CacheP_invL1dAll                                                              
70016f7c  CacheP_invL1pAll                                                              
70016f84  CacheP_wb                                                                     
70016fc0  CacheP_wbInv                                                                  
70016ffc  CacheP_wbAll                                                                  
700170a4  CacheP_wbInvAll                                                               
700170bc  CacheP_wbInvAllAsm                                                            
7001715c  CacheP_getEnabled                                                             
70017194  CacheP_getCacheLevelInfo                                                      
700171a0  CacheP_configForceWrThru                                                      
700171c0  CacheP_setDLFO                                                                
700171d0  CacheP_init                                                                   
70017270  CacheP_disable                                                                
700172c0  CacheP_enable                                                                 
700172f0  CacheP_inv                                                                    
70017330  MpuP_RegionAttrs_init                                                         
70017350  MpuP_setRegion                                                                
70017430  MpuP_enable                                                                   
70017480  MpuP_disable                                                                  
700174d0  MpuP_isEnable                                                                 
700174e0  MpuP_init                                                                     
70017580  MpuP_disableAsm                                                               
70017598  MpuP_disableBRAsm                                                             
700175a8  MpuP_enableAsm                                                                
700175c0  MpuP_enableBRAsm                                                              
700175d0  MpuP_isEnableAsm                                                              
700175e4  MpuP_setRegionAsm                                                             
70017600  _c_int00_sbl                                                                  
70017624  _c_int00                                                                      
70017700  _DebugP_assertNoLog                                                           
70017740  __mpu_init                                                                    
70017750  DDRSS_phyReg                                                                  
70017f3c  DDRSS_ctlReg                                                                  
700185d8  DDRSS_phyIndepReg                                                             
70018b3c  DDRSS_phyRegNum                                                               
70018f32  DDRSS_ctlRegNum                                                               
70019280  DDRSS_phyIndepRegNum                                                          
70019532  vint_usage_count_DMASS0_INTAGGR_0                                             
70019918  gRmIrInstances                                                                
70019978  gUdmaRmSharedResPrms                                                          
700199d0  gMpuRegionConfig                                                              
70019a70  gUartParams                                                                   
70019abc  gFlashNorXspiDeviceDefines_S28HS512T                                          
70019b40  gSocModulesClockFrequency                                                     
70019b98  gFlashNorXspiAttrs_S28HS512T                                                  
70019bc0  gPhyTuneWindowParamsGTE133                                                    
70019be8  gPhyTuneWindowParamsLT133                                                     
70019c30  gRmIaInstances                                                                
70019c50  gSciclientSecProxyCfg                                                         
70019c70  gSocModules                                                                   
70019c90  gOspiUdma0Args                                                                
70019cac  gClockConfig                                                                  
70019cc0  gFlashNorXspiFxns                                                             
70019ce8  gFlashConfig                                                                  
70019d08  gAddrTranslateConfig                                                          
70019d14  gMpuConfig                                                                    
70019d20  gOspiDmaUdmaFxns                                                              
70019d2c  gCacheConfig                                                                  
70019d34  gMmcsdConfig                                                                  
70019d3c  gMmcsdParams                                                                  
70019d44  gOspiConfig                                                                   
70019d4c  gOspiDmaConfig                                                                
70019d64  gUartConfig                                                                   
70019d6c  __aeabi_errno                                                                 
70019d70  gCacheL1dCacheLineSize                                                        
70019d74  gCacheL1pCacheLineSize                                                        
70019d78  gDebugLogZone                                                                 
70019d7c  gFlashConfigNum                                                               
70019d80  gHwiConfig                                                                    
70019d84  gMmcsdConfigNum                                                               
70019d88  gOspiConfigNum                                                                
70019d8c  gOspiDmaConfigNum                                                             
70019d90  gOspiParams                                                                   
70019d94  gPhyTuneWindowParams                                                          
70019dac  gUartConfigNum                                                                
70019e00  gSysFw                                                                        
70046ae0  gUdmaRmDefBoardCfg_Pktdma                                                     
70046f20  gUdmaTxMappedChRingAttributes                                                 
70047058  gSciclientMap                                                                 
700473a0  __aeabi_ctype_table_                                                          
700473a0  __aeabi_ctype_table_C                                                         
70047848  gUdmaRxMappedChRingAttributes                                                 
700478e4  gUdmaRmDefBoardCfg_Bcdma                                                      
70047b44  tisci_if_TIMESYNC_EVENT_INTROUTER0                                            
70047c6c  gRmIrqTree                                                                    
70047cc4  gRmIrqTreeCount                                                               
70047de0  tisci_if_MAIN_GPIOMUX_INTROUTER0                                              
70047e44  tisci_if_DMASS0_INTAGGR_0                                                     
70047ecc  tisci_if_MCU_MCU_GPIOMUX_INTROUTER0                                           
70047f34  tisci_if_CPTS0                                                                
70047f54  tisci_if_PRU_ICSSG0                                                           
70047f70  tisci_if_CPSW0                                                                
70047f80  gBoardConfigLow_debug                                                         
70047fa0  tisci_if_PRU_ICSSG1                                                           
70047fd4  tisci_if_CMP_EVENT_INTROUTER0                                                 
70047fec  tisci_if_PCIE0                                                                
70048014  tisci_if_EPWM0                                                                
70048024  tisci_if_EPWM3                                                                
70048034  tisci_if_EPWM6                                                                
70048044  tisci_if_GPMC0                                                                
70048054  CMP_EVENT_INTROUTER0_outp_0_15_to_GICSS0_spi_48_63                            
7004805c  CMP_EVENT_INTROUTER0_outp_16_23_to_R5FSS0_CORE0_intr_48_55                    
70048064  CMP_EVENT_INTROUTER0_outp_16_23_to_R5FSS0_CORE1_intr_48_55                    
7004806c  CMP_EVENT_INTROUTER0_outp_24_31_to_R5FSS1_CORE0_intr_48_55                    
70048074  CMP_EVENT_INTROUTER0_outp_24_31_to_R5FSS1_CORE1_intr_48_55                    
7004807c  CMP_EVENT_INTROUTER0_outp_32_39_to_DMASS0_INTAGGR_0_intaggr_levi_pend_0_7     
70048084  CPSW0_cpts_comp_0_0_to_CMP_EVENT_INTROUTER0_in_80_80                          
7004808c  CPSW0_cpts_genf0_1_1_to_TIMESYNC_EVENT_INTROUTER0_in_21_21                    
70048094  CPSW0_cpts_genf1_2_2_to_TIMESYNC_EVENT_INTROUTER0_in_22_22                    
7004809c  CPSW0_cpts_sync_3_3_to_TIMESYNC_EVENT_INTROUTER0_in_34_34                     
700480a4  CPTS0_cpts_comp_0_0_to_CMP_EVENT_INTROUTER0_in_82_82                          
700480ac  CPTS0_cpts_genf0_1_1_to_TIMESYNC_EVENT_INTROUTER0_in_16_16                    
700480b4  CPTS0_cpts_genf1_2_2_to_TIMESYNC_EVENT_INTROUTER0_in_17_17                    
700480bc  CPTS0_cpts_genf2_3_3_to_TIMESYNC_EVENT_INTROUTER0_in_18_18                    
700480c4  CPTS0_cpts_genf3_4_4_to_TIMESYNC_EVENT_INTROUTER0_in_19_19                    
700480cc  CPTS0_cpts_genf4_5_5_to_TIMESYNC_EVENT_INTROUTER0_in_20_20                    
700480d4  CPTS0_cpts_genf5_6_6_to_TIMESYNC_EVENT_INTROUTER0_in_24_24                    
700480dc  CPTS0_cpts_sync_7_7_to_TIMESYNC_EVENT_INTROUTER0_in_35_35                     
700480e4  DMASS0_INTAGGR_0_intaggr_vintr_pend_0_39_to_GICSS0_spi_64_103                 
700480ec  DMASS0_INTAGGR_0_intaggr_vintr_pend_120_127_to_R5FSS1_CORE0_intr_8_15         
700480f4  DMASS0_INTAGGR_0_intaggr_vintr_pend_128_135_to_R5FSS1_CORE1_intr_8_15         
700480fc  DMASS0_INTAGGR_0_intaggr_vintr_pend_152_159_to_PRU_ICSSG0_pr1_slv_intr_16_23  
70048104  DMASS0_INTAGGR_0_intaggr_vintr_pend_160_167_to_PRU_ICSSG1_pr1_slv_intr_16_23  
7004810c  DMASS0_INTAGGR_0_intaggr_vintr_pend_168_183_to_MCU_M4FSS0_CORE0_nvic_32_47    
70048114  DMASS0_INTAGGR_0_intaggr_vintr_pend_40_71_to_R5FSS0_CORE0_intr_64_95          
7004811c  DMASS0_INTAGGR_0_intaggr_vintr_pend_40_71_to_R5FSS0_CORE1_intr_64_95          
70048124  DMASS0_INTAGGR_0_intaggr_vintr_pend_72_79_to_R5FSS0_CORE0_intr_8_15           
7004812c  DMASS0_INTAGGR_0_intaggr_vintr_pend_80_87_to_R5FSS0_CORE1_intr_8_15           
70048134  DMASS0_INTAGGR_0_intaggr_vintr_pend_88_119_to_R5FSS1_CORE0_intr_64_95         
7004813c  DMASS0_INTAGGR_0_intaggr_vintr_pend_88_119_to_R5FSS1_CORE1_intr_64_95         
70048144  EPWM0_epwm_synco_o_0_0_to_TIMESYNC_EVENT_INTROUTER0_in_39_39                  
7004814c  EPWM3_epwm_synco_o_0_0_to_TIMESYNC_EVENT_INTROUTER0_in_40_40                  
70048154  EPWM6_epwm_synco_o_0_0_to_TIMESYNC_EVENT_INTROUTER0_in_41_41                  
7004815c  GPIO0_gpio_0_89_to_MAIN_GPIOMUX_INTROUTER0_in_0_89                            
70048164  GPIO0_gpio_bank_90_98_to_MAIN_GPIOMUX_INTROUTER0_in_190_198                   
7004816c  GPIO1_gpio_0_89_to_MAIN_GPIOMUX_INTROUTER0_in_90_179                          
70048174  GPIO1_gpio_bank_90_98_to_MAIN_GPIOMUX_INTROUTER0_in_180_188                   
7004817c  GPMC0_gpmc_sdmareq_0_0_to_DMASS0_INTAGGR_0_intaggr_levi_pend_29_29            
70048184  GTC0_gtc_push_event_0_0_to_TIMESYNC_EVENT_INTROUTER0_in_36_36                 
7004818c  MAIN_GPIOMUX_INTROUTER0_outp_0_15_to_GICSS0_spi_32_47                         
70048194  MAIN_GPIOMUX_INTROUTER0_outp_0_15_to_R5FSS0_CORE0_intr_32_47                  
7004819c  MAIN_GPIOMUX_INTROUTER0_outp_0_15_to_R5FSS0_CORE1_intr_32_47                  
700481a4  MAIN_GPIOMUX_INTROUTER0_outp_0_15_to_R5FSS1_CORE0_intr_32_47                  
700481ac  MAIN_GPIOMUX_INTROUTER0_outp_0_15_to_R5FSS1_CORE1_intr_32_47                  
700481b4  MAIN_GPIOMUX_INTROUTER0_outp_16_17_to_DMASS0_INTAGGR_0_intaggr_levi_pend_24_25
700481bc  MAIN_GPIOMUX_INTROUTER0_outp_18_23_to_PRU_ICSSG0_pr1_iep0_cap_intr_req_4_9    
700481c4  MAIN_GPIOMUX_INTROUTER0_outp_18_23_to_PRU_ICSSG1_pr1_iep0_cap_intr_req_4_9    
700481cc  MAIN_GPIOMUX_INTROUTER0_outp_24_29_to_PRU_ICSSG0_pr1_iep1_cap_intr_req_10_15  
700481d4  MAIN_GPIOMUX_INTROUTER0_outp_24_29_to_PRU_ICSSG1_pr1_iep1_cap_intr_req_10_15  
700481dc  MAIN_GPIOMUX_INTROUTER0_outp_30_37_to_DMASS0_INTAGGR_0_intaggr_levi_pend_16_23
700481e4  MAIN_GPIOMUX_INTROUTER0_outp_38_45_to_PRU_ICSSG0_pr1_slv_intr_46_53           
700481ec  MAIN_GPIOMUX_INTROUTER0_outp_46_53_to_PRU_ICSSG1_pr1_slv_intr_46_53           
700481f4  MCU_GPIO0_gpio_0_29_to_MCU_MCU_GPIOMUX_INTROUTER0_in_0_29                     
700481fc  MCU_GPIO0_gpio_bank_30_31_to_MCU_MCU_GPIOMUX_INTROUTER0_in_30_31              
70048204  MCU_MCU_GPIOMUX_INTROUTER0_outp_0_3_to_GICSS0_spi_104_107                     
7004820c  MCU_MCU_GPIOMUX_INTROUTER0_outp_0_3_to_R5FSS0_CORE0_intr_104_107              
70048214  MCU_MCU_GPIOMUX_INTROUTER0_outp_0_3_to_R5FSS0_CORE1_intr_104_107              
7004821c  MCU_MCU_GPIOMUX_INTROUTER0_outp_0_3_to_R5FSS1_CORE0_intr_104_107              
70048224  MCU_MCU_GPIOMUX_INTROUTER0_outp_0_3_to_R5FSS1_CORE1_intr_104_107              
7004822c  MCU_MCU_GPIOMUX_INTROUTER0_outp_4_7_to_MCU_M4FSS0_CORE0_nvic_0_3              
70048234  MCU_MCU_GPIOMUX_INTROUTER0_outp_8_11_to_MCU_ESM0_esm_pls_event0_88_91         
7004823c  MCU_MCU_GPIOMUX_INTROUTER0_outp_8_11_to_MCU_ESM0_esm_pls_event1_92_95         
70048244  MCU_MCU_GPIOMUX_INTROUTER0_outp_8_11_to_MCU_ESM0_esm_pls_event2_96_99         
7004824c  PCIE0_pcie_cpts_comp_0_0_to_CMP_EVENT_INTROUTER0_in_81_81                     
70048254  PCIE0_pcie_cpts_genf0_1_1_to_TIMESYNC_EVENT_INTROUTER0_in_23_23               
7004825c  PCIE0_pcie_cpts_hw1_push_2_2_to_TIMESYNC_EVENT_INTROUTER0_in_37_37            
70048264  PCIE0_pcie_cpts_sync_3_3_to_TIMESYNC_EVENT_INTROUTER0_in_33_33                
7004826c  PCIE0_pcie_ptm_valid_pulse_4_4_to_TIMESYNC_EVENT_INTROUTER0_in_38_38          
70048274  PRU_ICSSG0_pr1_edc0_sync0_out_0_0_to_TIMESYNC_EVENT_INTROUTER0_in_25_25       
7004827c  PRU_ICSSG0_pr1_edc0_sync1_out_1_1_to_TIMESYNC_EVENT_INTROUTER0_in_26_26       
70048284  PRU_ICSSG0_pr1_edc1_sync0_out_2_2_to_TIMESYNC_EVENT_INTROUTER0_in_27_27       
7004828c  PRU_ICSSG0_pr1_edc1_sync1_out_3_3_to_TIMESYNC_EVENT_INTROUTER0_in_28_28       
70048294  PRU_ICSSG0_pr1_host_intr_req_4_11_to_CMP_EVENT_INTROUTER0_in_0_7              
7004829c  PRU_ICSSG0_pr1_iep0_cmp_intr_req_12_27_to_CMP_EVENT_INTROUTER0_in_16_31       
700482a4  PRU_ICSSG0_pr1_iep1_cmp_intr_req_28_43_to_CMP_EVENT_INTROUTER0_in_32_47       
700482ac  PRU_ICSSG1_pr1_edc0_sync0_out_0_0_to_TIMESYNC_EVENT_INTROUTER0_in_29_29       
700482b4  PRU_ICSSG1_pr1_edc0_sync1_out_1_1_to_TIMESYNC_EVENT_INTROUTER0_in_30_30       
700482bc  PRU_ICSSG1_pr1_edc1_sync0_out_2_2_to_TIMESYNC_EVENT_INTROUTER0_in_31_31       
700482c4  PRU_ICSSG1_pr1_edc1_sync1_out_3_3_to_TIMESYNC_EVENT_INTROUTER0_in_32_32       
700482cc  PRU_ICSSG1_pr1_host_intr_req_4_11_to_CMP_EVENT_INTROUTER0_in_8_15             
700482d4  PRU_ICSSG1_pr1_iep0_cmp_intr_req_12_27_to_CMP_EVENT_INTROUTER0_in_48_63       
700482dc  PRU_ICSSG1_pr1_iep1_cmp_intr_req_28_43_to_CMP_EVENT_INTROUTER0_in_64_79       
700482e4  TIMER0_timer_pwm_0_0_to_TIMESYNC_EVENT_INTROUTER0_in_0_0                      
700482ec  TIMER1_timer_pwm_0_0_to_TIMESYNC_EVENT_INTROUTER0_in_1_1                      
700482f4  TIMER2_timer_pwm_0_0_to_TIMESYNC_EVENT_INTROUTER0_in_2_2                      
700482fc  TIMER3_timer_pwm_0_0_to_TIMESYNC_EVENT_INTROUTER0_in_3_3                      
70048304  TIMESYNC_EVENT_INTROUTER0_outl_0_7_to_DMASS0_INTAGGR_0_intaggr_levi_pend_8_15 
7004830c  TIMESYNC_EVENT_INTROUTER0_outl_10_10_to_PRU_ICSSG0_pr1_edc1_latch0_in_2_2     
70048314  TIMESYNC_EVENT_INTROUTER0_outl_11_11_to_PRU_ICSSG0_pr1_edc1_latch1_in_3_3     
7004831c  TIMESYNC_EVENT_INTROUTER0_outl_12_12_to_PRU_ICSSG1_pr1_edc0_latch0_in_0_0     
70048324  TIMESYNC_EVENT_INTROUTER0_outl_13_13_to_PRU_ICSSG1_pr1_edc0_latch1_in_1_1     
7004832c  TIMESYNC_EVENT_INTROUTER0_outl_14_14_to_PRU_ICSSG1_pr1_edc1_latch0_in_2_2     
70048334  TIMESYNC_EVENT_INTROUTER0_outl_15_15_to_PRU_ICSSG1_pr1_edc1_latch1_in_3_3     
7004833c  TIMESYNC_EVENT_INTROUTER0_outl_16_16_to_CPTS0_cpts_hw1_push_0_0               
70048344  TIMESYNC_EVENT_INTROUTER0_outl_17_17_to_CPTS0_cpts_hw2_push_1_1               
7004834c  TIMESYNC_EVENT_INTROUTER0_outl_18_18_to_CPTS0_cpts_hw3_push_2_2               
70048354  TIMESYNC_EVENT_INTROUTER0_outl_19_19_to_CPTS0_cpts_hw4_push_3_3               
7004835c  TIMESYNC_EVENT_INTROUTER0_outl_20_20_to_CPTS0_cpts_hw5_push_4_4               
70048364  TIMESYNC_EVENT_INTROUTER0_outl_21_21_to_CPTS0_cpts_hw6_push_5_5               
7004836c  TIMESYNC_EVENT_INTROUTER0_outl_22_22_to_CPTS0_cpts_hw7_push_6_6               
70048374  TIMESYNC_EVENT_INTROUTER0_outl_23_23_to_CPTS0_cpts_hw8_push_7_7               
7004837c  TIMESYNC_EVENT_INTROUTER0_outl_29_29_to_PCIE0_pcie_cpts_hw2_push_0_0          
70048384  TIMESYNC_EVENT_INTROUTER0_outl_30_30_to_CPSW0_cpts_hw1_push_0_0               
7004838c  TIMESYNC_EVENT_INTROUTER0_outl_31_31_to_CPSW0_cpts_hw2_push_1_1               
70048394  TIMESYNC_EVENT_INTROUTER0_outl_32_32_to_CPSW0_cpts_hw3_push_2_2               
7004839c  TIMESYNC_EVENT_INTROUTER0_outl_33_33_to_CPSW0_cpts_hw4_push_3_3               
700483a4  TIMESYNC_EVENT_INTROUTER0_outl_34_34_to_CPSW0_cpts_hw5_push_4_4               
700483ac  TIMESYNC_EVENT_INTROUTER0_outl_35_35_to_CPSW0_cpts_hw6_push_5_5               
700483b4  TIMESYNC_EVENT_INTROUTER0_outl_36_36_to_CPSW0_cpts_hw7_push_6_6               
700483bc  TIMESYNC_EVENT_INTROUTER0_outl_37_37_to_CPSW0_cpts_hw8_push_7_7               
700483c4  TIMESYNC_EVENT_INTROUTER0_outl_8_8_to_PRU_ICSSG0_pr1_edc0_latch0_in_0_0       
700483cc  TIMESYNC_EVENT_INTROUTER0_outl_9_9_to_PRU_ICSSG0_pr1_edc0_latch1_in_1_1       
700483d4  tisci_if_GPIO0                                                                
700483dc  tisci_if_GPIO1                                                                
700483e4  tisci_if_MCU_GPIO0                                                            
7004849c  tisci_if_GTC0                                                                 
700484a0  tisci_if_TIMER0                                                               
700484a4  tisci_if_TIMER1                                                               
700484a8  tisci_if_TIMER2                                                               
700484ac  tisci_if_TIMER3                                                               
70068000  __BSS_START                                                                   
70068000  __start___llvm_prf_cnts                                                       
70068000  __stop___llvm_prf_cnts                                                        
70068000  gUniflashVerifyBuf                                                            
70070000  gHwiCtrl                                                                      
70071008  gUdmaDrvObj                                                                   
7007223c  gFlashHandle                                                                  
70072240  gClockCtrl                                                                    
70072278  gMmcsdHandle                                                                  
7007227c  gOspiHandle                                                                   
70072280  gMmcsdDataBuf0                                                                
700725f4  gADMA2Desc                                                                    
700727a8  gEmmcData0                                                                    
700727f0  gFlashObject_S28HS512T                                                        
700727fc  gUartHandle                                                                   
70072800  __BSS_END                                                                     
70072800  _sys_memory                                                                   
7007a800  __stack                                                                       
7007e800  __IRQ_STACK_START                                                             
7007e800  __STACK_END                                                                   
7007f800  __FIQ_STACK_START                                                             
7007f800  __IRQ_STACK_END                                                               
7007f900  __FIQ_STACK_END                                                               
7007f900  __SVC_STACK_START                                                             
7007fa00  __ABORT_STACK_START                                                           
7007fa00  __SVC_STACK_END                                                               
7007fb00  __ABORT_STACK_END                                                             
7007fb00  __UNDEFINED_STACK_START                                                       
7007fc00  __UNDEFINED_STACK_END                                                         
80000000  gUniflashFileBuf                                                              
ffffffff  __TI_pprof_out_hndl                                                           
ffffffff  __TI_prof_data_size                                                           
ffffffff  __TI_prof_data_start                                                          
ffffffff  __binit__                                                                     
ffffffff  binit                                                                         
UNDEFED   __TI_CINIT_Base                                                               
UNDEFED   __TI_CINIT_Limit                                                              
UNDEFED   __TI_Handler_Table_Base                                                       
UNDEFED   __TI_Handler_Table_Limit                                                      
UNDEFED   _system_post_cinit                                                            

[629 symbols]
